

Microchip Technology PIC18 LITE Macro Assembler V1.42 build -159332390 
                                                                                               Sat Mar 17 21:48:49 2018

Microchip Technology Omniscient Code Generator v1.42 (Free mode) build 201704130522
     1                           	processor	18F45K50
     2                           	fnconf	rparam,??,?,0
     3                           	opt	pw 120
     4                           	opt	lm
     5                           	psect	idataBANK0,global,class=CODE,delta=1,noexec
     6                           	psect	cinit,global,reloc=2,class=CODE,delta=1
     7                           	psect	bssCOMRAM,global,class=COMRAM,space=1,delta=1,noexec
     8                           	psect	bssBANK0,global,class=BANK0,space=1,delta=1,lowdata,noexec
     9                           	psect	dataBANK0,global,class=BANK0,space=1,delta=1,lowdata,noexec
    10                           	psect	cstackBANK0,global,class=BANK0,space=1,delta=1,noexec
    11                           	psect	cstackCOMRAM,global,class=COMRAM,space=1,delta=1,noexec
    12                           	psect	text0,global,reloc=2,class=CODE,delta=1
    13                           	psect	text1,global,reloc=2,class=CODE,delta=1
    14                           	psect	text2,global,reloc=2,class=CODE,delta=1
    15                           	psect	text3,global,reloc=2,class=CODE,delta=1
    16                           	psect	text4,global,reloc=2,class=CODE,delta=1
    17                           	psect	text5,global,reloc=2,class=CODE,delta=1
    18                           	psect	text6,global,reloc=2,class=CODE,delta=1
    19                           	psect	text7,global,reloc=2,class=CODE,delta=1
    20                           	psect	text8,global,reloc=2,class=CODE,delta=1
    21                           	psect	intcode,global,reloc=2,class=CODE,delta=1
    22                           	psect	text10,global,reloc=2,class=CODE,delta=1
    23                           	psect	text11,global,reloc=2,class=CODE,delta=1
    24                           	psect	text12,global,reloc=2,class=CODE,delta=1
    25                           	psect	text13,global,reloc=2,class=CODE,delta=1
    26                           	psect	intsave_regs,global,class=BIGRAM,space=1,delta=1,noexec
    27                           	psect	rparam,global,class=COMRAM,space=1,delta=1,noexec
    28                           	psect	temp,global,ovrld,common,class=COMRAM,space=1,delta=1
    29  0000                     
    30                           ; Version 1.42
    31                           ; Generated 13/04/2017 GMT
    32                           ; 
    33                           ; Copyright © 2017, Microchip Technology Inc. and its subsidiaries ("Microchip")
    34                           ; All rights reserved.
    35                           ; 
    36                           ; This software is developed by Microchip Technology Inc. and its subsidiaries ("Microch
      +                          ip").
    37                           ; 
    38                           ; Redistribution and use in source and binary forms, with or without modification, are
    39                           ; permitted provided that the following conditions are met:
    40                           ; 
    41                           ;     1. Redistributions of source code must retain the above copyright notice, this lis
      +                          t of
    42                           ;        conditions and the following disclaimer.
    43                           ; 
    44                           ;     2. Redistributions in binary form must reproduce the above copyright notice, this 
      +                          list
    45                           ;        of conditions and the following disclaimer in the documentation and/or other
    46                           ;        materials provided with the distribution.
    47                           ; 
    48                           ;     3. Microchip's name may not be used to endorse or promote products derived from th
      +                          is
    49                           ;        software without specific prior written permission.
    50                           ; 
    51                           ; THIS SOFTWARE IS PROVIDED BY MICROCHIP "AS IS" AND ANY EXPRESS OR IMPLIED WARRANTIES,
    52                           ; INCLUDING, BUT NOT LIMITED TO, THE IMPLIED WARRANTIES OF MERCHANTABILITY AND FITNESS F
      +                          OR
    53                           ; PURPOSE ARE DISCLAIMED.  IN NO EVENT SHALL MICROCHIP BE LIABLE FOR ANY DIRECT, INDIREC
      +                          T,
    54                           ; INCIDENTAL, SPECIAL, EXEMPLARY, OR CONSEQUENTIAL DAMAGES (INCLUDING BUT NOT LIMITED TO
    55                           ; PROCUREMENT OF SUBSTITUTE GOODS OR SERVICES; LOSS OF USE, DATA OR PROFITS; OR BUSINESS
    56                           ; INTERRUPTION) HOWSOEVER CAUSED AND ON ANY THEORY OF LIABILITY, WHETHER IN CONTRACT, ST
      +                          RICT
    57                           ; LIABILITY, OR TORT (INCLUDING NEGLIGENCE OR OTHERWISE) ARISING IN ANY WAY OUT OF THE U
      +                          SE OF
    58                           ; THIS SOFTWARE, EVEN IF ADVISED OF THE POSSIBILITY OF SUCH DAMAGE.
    59                           ; 
    60                           ; 
    61                           ; Code-generator required, PIC18F45K50 Definitions
    62                           ; 
    63                           ; SFR Addresses
    64  0000                     
    65                           	psect	idataBANK0
    66  0015DA                     __pidataBANK0:
    67                           	opt stack 0
    68                           
    69                           ;initializer for main@F5817
    70  0015DA  32                 	db	50
    71  0015DB  12                 	db	18
    72  0015DC  32                 	db	50
    73  0015DD  12                 	db	18
    74  0015DE  38                 	db	56
    75  0015DF  18                 	db	24
    76  0015E0  30                 	db	48
    77  0015E1  10                 	db	16
    78  0015E2  3F                 	db	63
    79  0015E3  1F                 	db	31
    80  0015E4  30                 	db	48
    81  0015E5  10                 	db	16
    82  0015E6  32                 	db	50
    83  0015E7  12                 	db	18
    84  0015E8  30                 	db	48
    85  0015E9  10                 	db	16
    86  0015EA  31                 	db	49
    87  0015EB  11                 	db	17
    88  0000                     _ANSELA	set	3931
    89  0000                     _ANSELE	set	3935
    90  0000                     _ANSELD	set	3934
    91  0000                     _ANSELB	set	3932
    92  0000                     _ANSELC	set	3933
    93  0000                     _SSP1BUF	set	4041
    94  0000                     _SSP1CON2bits	set	4037
    95  0000                     _SSP1CON1bits	set	4038
    96  0000                     _SSP1ADD	set	4040
    97  0000                     _SSP1CON3	set	4043
    98  0000                     _SSP1CON1	set	4038
    99  0000                     _SSP1STAT	set	4039
   100  0000                     _INTCON2bits	set	4081
   101  0000                     _WPUB	set	3973
   102  0000                     _TRISD	set	3989
   103  0000                     _TRISC	set	3988
   104  0000                     _TRISB	set	3987
   105  0000                     _TRISA	set	3986
   106  0000                     _TRISE	set	3990
   107  0000                     _LATC	set	3979
   108  0000                     _LATB	set	3978
   109  0000                     _LATA	set	3977
   110  0000                     _LATD	set	3980
   111  0000                     _LATE	set	3981
   112  0000                     _ACTCON	set	4021
   113  0000                     _OSCTUNE	set	3995
   114  0000                     _OSCCON2	set	4050
   115  0000                     _OSCCON	set	4051
   116  0000                     _PIR1bits	set	3998
   117  0000                     _PIE1bits	set	3997
   118  0000                     _PIR2bits	set	4001
   119  0000                     _PIE2bits	set	4000
   120  0000                     _INTCONbits	set	4082
   121  0000                     _RCONbits	set	4048
   122                           
   123                           ; #config settings
   124  0000                     
   125                           	psect	cinit
   126  001488                     __pcinit:
   127                           	opt stack 0
   128  001488                     start_initialization:
   129                           	opt stack 0
   130  001488                     __initialization:
   131                           	opt stack 0
   132                           
   133                           ; Initialize objects allocated to BANK0 (18 bytes)
   134                           ; load TBLPTR registers with __pidataBANK0
   135  001488  0EDA               	movlw	low __pidataBANK0
   136  00148A  6EF6               	movwf	tblptrl,c
   137  00148C  0E15               	movlw	high __pidataBANK0
   138  00148E  6EF7               	movwf	tblptrh,c
   139  001490  0E00               	movlw	low (__pidataBANK0 shr (0+16))
   140  001492  6EF8               	movwf	tblptru,c
   141  001494  EE00  F07A         	lfsr	0,__pdataBANK0
   142  001498  EE10 F012          	lfsr	1,18
   143  00149C                     copy_data0:
   144  00149C  0009               	tblrd		*+
   145  00149E  CFF5 FFEE          	movff	tablat,postinc0
   146  0014A2  50E5               	movf	postdec1,w,c
   147  0014A4  50E1               	movf	fsr1l,w,c
   148  0014A6  E1FA               	bnz	copy_data0
   149                           
   150                           ; Clear objects allocated to BANK0 (5 bytes)
   151  0014A8  0100               	movlb	0
   152  0014AA  6B90               	clrf	(__pbssBANK0+4)& (0+255),b
   153  0014AC  6B8F               	clrf	(__pbssBANK0+3)& (0+255),b
   154  0014AE  6B8E               	clrf	(__pbssBANK0+2)& (0+255),b
   155  0014B0  6B8D               	clrf	(__pbssBANK0+1)& (0+255),b
   156  0014B2  6B8C               	clrf	__pbssBANK0& (0+255),b
   157                           
   158                           ; Clear objects allocated to COMRAM (29 bytes)
   159  0014B4  EE00  F024         	lfsr	0,__pbssCOMRAM
   160  0014B8  0E1D               	movlw	29
   161  0014BA                     clear_0:
   162  0014BA  6AEE               	clrf	postinc0,c
   163  0014BC  06E8               	decf	wreg,f,c
   164  0014BE  E1FD               	bnz	clear_0
   165  0014C0                     end_of_initialization:
   166                           	opt stack 0
   167  0014C0                     __end_of__initialization:
   168                           	opt stack 0
   169  0014C0  9041               	bcf	int$flags,0,c	;clear compiler interrupt flag (level 1)
   170  0014C2  9241               	bcf	int$flags,1,c	;clear compiler interrupt flag (level 2)
   171  0014C4  0E00               	movlw	low (__Lmediumconst shr (0+16))
   172  0014C6  6EF8               	movwf	tblptru,c
   173  0014C8  0100               	movlb	0
   174  0014CA  EF6E  F009         	goto	_main	;jump to C main() function
   175                           tblptru	equ	0xFF8
   176                           tblptrh	equ	0xFF7
   177                           tblptrl	equ	0xFF6
   178                           tablat	equ	0xFF5
   179                           postinc0	equ	0xFEE
   180                           wreg	equ	0xFE8
   181                           postdec1	equ	0xFE5
   182                           fsr1l	equ	0xFE1
   183                           
   184                           	psect	bssCOMRAM
   185  000024                     __pbssCOMRAM:
   186                           	opt stack 0
   187  000024                     _i2c1_object:
   188                           	opt stack 0
   189  000024                     	ds	7
   190  00002B                     I2C1_ISR@pi2c_buf_ptr:
   191                           	opt stack 0
   192  00002B                     	ds	2
   193  00002D                     _p_i2c1_current:
   194                           	opt stack 0
   195  00002D                     	ds	2
   196  00002F                     _p_i2c1_trb_current:
   197                           	opt stack 0
   198  00002F                     	ds	2
   199  000031                     I2C1_ISR@i2c_10bit_address_restart:
   200                           	opt stack 0
   201  000031                     	ds	1
   202  000032                     I2C1_ISR@i2c_bytes_left:
   203                           	opt stack 0
   204  000032                     	ds	1
   205  000033                     _i2c1_trb_count:
   206                           	opt stack 0
   207  000033                     	ds	1
   208  000034                     _i2c1_state:
   209                           	opt stack 0
   210  000034                     	ds	1
   211  000035                     I2C1_MasterWrite@trBlock:
   212                           	opt stack 0
   213  000035                     	ds	5
   214  00003A                     _i2c1_tr_queue:
   215                           	opt stack 0
   216  00003A                     	ds	5
   217  00003F                     I2C1_ISR@i2c_address:
   218                           	opt stack 0
   219  00003F                     	ds	2
   220                           tblptru	equ	0xFF8
   221                           tblptrh	equ	0xFF7
   222                           tblptrl	equ	0xFF6
   223                           tablat	equ	0xFF5
   224                           postinc0	equ	0xFEE
   225                           wreg	equ	0xFE8
   226                           postdec1	equ	0xFE5
   227                           fsr1l	equ	0xFE1
   228                           
   229                           	psect	bssBANK0
   230  00008C                     __pbssBANK0:
   231                           	opt stack 0
   232  00008C                     I2C1_MasterRead@trBlock:
   233                           	opt stack 0
   234  00008C                     	ds	5
   235                           tblptru	equ	0xFF8
   236                           tblptrh	equ	0xFF7
   237                           tblptrl	equ	0xFF6
   238                           tablat	equ	0xFF5
   239                           postinc0	equ	0xFEE
   240                           wreg	equ	0xFE8
   241                           postdec1	equ	0xFE5
   242                           fsr1l	equ	0xFE1
   243                           
   244                           	psect	dataBANK0
   245  00007A                     __pdataBANK0:
   246                           	opt stack 0
   247  00007A                     main@F5817:
   248                           	opt stack 0
   249  00007A                     	ds	18
   250                           tblptru	equ	0xFF8
   251                           tblptrh	equ	0xFF7
   252                           tblptrl	equ	0xFF6
   253                           tablat	equ	0xFF5
   254                           postinc0	equ	0xFEE
   255                           wreg	equ	0xFE8
   256                           postdec1	equ	0xFE5
   257                           fsr1l	equ	0xFE1
   258                           
   259                           	psect	cstackBANK0
   260  000060                     __pcstackBANK0:
   261                           	opt stack 0
   262  000060                     main@LCD_commands:
   263                           	opt stack 0
   264                           
   265                           ; 18 bytes @ 0x0
   266  000060                     	ds	18
   267  000072                     main@data:
   268                           	opt stack 0
   269                           
   270                           ; 1 bytes @ 0x12
   271  000072                     	ds	1
   272  000073                     main@pD:
   273                           	opt stack 0
   274                           
   275                           ; 2 bytes @ 0x13
   276  000073                     	ds	2
   277  000075                     main@timeout:
   278                           	opt stack 0
   279                           
   280                           ; 2 bytes @ 0x15
   281  000075                     	ds	2
   282  000077                     main@writeBuffer:
   283                           	opt stack 0
   284                           
   285                           ; 1 bytes @ 0x17
   286  000077                     	ds	1
   287  000078                     main@i:
   288                           	opt stack 0
   289                           
   290                           ; 1 bytes @ 0x18
   291  000078                     	ds	1
   292  000079                     main@status:
   293                           	opt stack 0
   294                           
   295                           ; 1 bytes @ 0x19
   296  000079                     	ds	1
   297                           tblptru	equ	0xFF8
   298                           tblptrh	equ	0xFF7
   299                           tblptrl	equ	0xFF6
   300                           tablat	equ	0xFF5
   301                           postinc0	equ	0xFEE
   302                           wreg	equ	0xFE8
   303                           postdec1	equ	0xFE5
   304                           fsr1l	equ	0xFE1
   305                           
   306                           	psect	cstackCOMRAM
   307  000001                     __pcstackCOMRAM:
   308                           	opt stack 0
   309  000001                     ??_I2C1_Stop:
   310  000001                     
   311                           ; 1 bytes @ 0x0
   312  000001                     	ds	2
   313  000003                     I2C1_Stop@completion_code:
   314                           	opt stack 0
   315                           
   316                           ; 1 bytes @ 0x2
   317  000003                     	ds	1
   318  000004                     ??_I2C1_ISR:
   319                           
   320                           ; 1 bytes @ 0x3
   321  000004                     	ds	2
   322  000006                     ??_INTERRUPT_InterruptManager:
   323                           
   324                           ; 1 bytes @ 0x5
   325  000006                     	ds	14
   326  000014                     I2C1_MasterTRBInsert@ptrb_list:
   327                           	opt stack 0
   328  000014                     I2C1_MasterWriteTRBBuild@ptrb:
   329                           	opt stack 0
   330                           
   331                           ; 2 bytes @ 0x13
   332  000014                     	ds	2
   333  000016                     I2C1_MasterTRBInsert@pflag:
   334                           	opt stack 0
   335  000016                     I2C1_MasterWriteTRBBuild@pdata:
   336                           	opt stack 0
   337                           
   338                           ; 2 bytes @ 0x15
   339  000016                     	ds	2
   340  000018                     I2C1_MasterWriteTRBBuild@length:
   341                           	opt stack 0
   342                           
   343                           ; 1 bytes @ 0x17
   344  000018                     	ds	1
   345  000019                     I2C1_MasterTRBInsert@count:
   346                           	opt stack 0
   347  000019                     I2C1_MasterWriteTRBBuild@address:
   348                           	opt stack 0
   349                           
   350                           ; 2 bytes @ 0x18
   351  000019                     	ds	2
   352  00001B                     ??_I2C1_MasterWriteTRBBuild:
   353                           
   354                           ; 1 bytes @ 0x1A
   355  00001B                     	ds	2
   356  00001D                     I2C1_MasterWrite@pdata:
   357                           	opt stack 0
   358                           
   359                           ; 2 bytes @ 0x1C
   360  00001D                     	ds	2
   361  00001F                     I2C1_MasterWrite@length:
   362                           	opt stack 0
   363                           
   364                           ; 1 bytes @ 0x1E
   365  00001F                     	ds	1
   366  000020                     I2C1_MasterWrite@address:
   367                           	opt stack 0
   368                           
   369                           ; 2 bytes @ 0x1F
   370  000020                     	ds	2
   371  000022                     I2C1_MasterWrite@pflag:
   372                           	opt stack 0
   373                           
   374                           ; 2 bytes @ 0x21
   375  000022                     	ds	2
   376  000024                     tblptru	equ	0xFF8
   377                           tblptrh	equ	0xFF7
   378                           tblptrl	equ	0xFF6
   379                           tablat	equ	0xFF5
   380                           postinc0	equ	0xFEE
   381                           wreg	equ	0xFE8
   382                           postdec1	equ	0xFE5
   383                           fsr1l	equ	0xFE1
   384                           
   385                           ; 1 bytes @ 0x23
   386 ;;
   387 ;;Main: autosize = 0, tempsize = 0, incstack = 0, save=0
   388 ;;
   389 ;; *************** function _main *****************
   390 ;; Defined at:
   391 ;;		line 54 in file "main.c"
   392 ;; Parameters:    Size  Location     Type
   393 ;;		None
   394 ;; Auto vars:     Size  Location     Type
   395 ;;  LCD_commands   18    0[BANK0 ] unsigned char [18]
   396 ;;  timeout         2   21[BANK0 ] unsigned short 
   397 ;;  pD              2   19[BANK0 ] PTR unsigned char 
   398 ;;		 -> main@LCD_commands(18), 
   399 ;;  status          1   25[BANK0 ] enum E5760
   400 ;;  i               1   24[BANK0 ] unsigned char 
   401 ;;  writeBuffer     1   23[BANK0 ] unsigned char [1]
   402 ;;  data            1   18[BANK0 ] unsigned char 
   403 ;; Return value:  Size  Location     Type
   404 ;;                  1    wreg      void 
   405 ;; Registers used:
   406 ;;		wreg, fsr1l, fsr1h, fsr2l, fsr2h, status,2, status,0, prodl, prodh, cstack
   407 ;; Tracked objects:
   408 ;;		On entry : 0/0
   409 ;;		On exit  : 0/0
   410 ;;		Unchanged: 0/0
   411 ;; Data sizes:     COMRAM   BANK0   BANK1   BANK2   BANK3   BANK4   BANK5   BANK6   BANK7
   412 ;;      Params:         0       0       0       0       0       0       0       0       0
   413 ;;      Locals:         0      26       0       0       0       0       0       0       0
   414 ;;      Temps:          0       0       0       0       0       0       0       0       0
   415 ;;      Totals:         0      26       0       0       0       0       0       0       0
   416 ;;Total ram usage:       26 bytes
   417 ;; Hardware stack levels required when called:    5
   418 ;; This function calls:
   419 ;;		_I2C1_MasterWrite
   420 ;;		_SYSTEM_Initialize
   421 ;; This function is called by:
   422 ;;		Startup code after reset
   423 ;; This function uses a non-reentrant model
   424 ;;
   425                           
   426                           	psect	text0
   427  0012DC                     __ptext0:
   428                           	opt stack 0
   429  0012DC                     _main:
   430                           	opt stack 26
   431                           
   432                           ;main.c: 57: SYSTEM_Initialize();
   433                           
   434                           ;incstack = 0
   435  0012DC  ECF6  F00A         	call	_SYSTEM_Initialize	;wreg free
   436                           
   437                           ;main.c: 93: unsigned char i;
   438                           ;main.c: 94: unsigned short timeout;
   439                           ;main.c: 95: unsigned char LCD_commands[18] = {0x32,
   440                           ;main.c: 97: 0x12,
   441                           ;main.c: 99: 0x32,
   442                           ;main.c: 101: 0x12,
   443                           ;main.c: 103: 0x38,
   444                           ;main.c: 105: 0x18,
   445                           ;main.c: 107: 0x30,
   446                           ;main.c: 109: 0x10,
   447                           ;main.c: 111: 0x3F,
   448                           ;main.c: 113: 0x1F,
   449                           ;main.c: 115: 0x30,
   450                           ;main.c: 117: 0x10,
   451                           ;main.c: 119: 0x32,
   452                           ;main.c: 121: 0x12,
   453                           ;main.c: 123: 0x30,
   454                           ;main.c: 125: 0x10,
   455                           ;main.c: 127: 0x31,
   456                           ;main.c: 129: 0x11
   457                           ;main.c: 130: };
   458  0012E0  EE20  F07A         	lfsr	2,main@F5817
   459  0012E4  EE10  F060         	lfsr	1,main@LCD_commands
   460  0012E8  0E11               	movlw	17
   461  0012EA                     u1021:
   462  0012EA  CFDB FFE3          	movff	plusw2,plusw1
   463  0012EE  06E8               	decf	wreg,f,c
   464  0012F0  E2FC               	bc	u1021
   465                           
   466                           ;main.c: 132: unsigned char data = 0xFF;
   467  0012F2  0100               	movlb	0	; () banked
   468  0012F4  6972               	setf	main@data& (0+255),b
   469                           
   470                           ; BSR set to: 0
   471                           ;main.c: 133: unsigned char * pD;
   472                           ;main.c: 134: unsigned char writeBuffer[1];
   473                           ;main.c: 135: I2C1_MESSAGE_STATUS status = I2C1_MESSAGE_PENDING;
   474  0012F6  0E02               	movlw	2
   475  0012F8  0100               	movlb	0	; () banked
   476  0012FA  6F79               	movwf	main@status& (0+255),b
   477                           
   478                           ; BSR set to: 0
   479                           ;main.c: 137: pD = LCD_commands;
   480  0012FC  0E60               	movlw	low main@LCD_commands
   481  0012FE  0100               	movlb	0	; () banked
   482  001300  6F73               	movwf	main@pD& (0+255),b
   483  001302  0E00               	movlw	high main@LCD_commands
   484  001304  0100               	movlb	0	; () banked
   485  001306  6F74               	movwf	(main@pD+1)& (0+255),b
   486                           
   487                           ; BSR set to: 0
   488                           ;main.c: 138: for(i = 0; i < 18; i++)
   489  001308  0E00               	movlw	0
   490  00130A  0100               	movlb	0	; () banked
   491  00130C  6F78               	movwf	main@i& (0+255),b
   492  00130E                     l1755:
   493                           
   494                           ; BSR set to: 0
   495  00130E  0E11               	movlw	17
   496  001310  0100               	movlb	0	; () banked
   497  001312  6578               	cpfsgt	main@i& (0+255),b
   498  001314  D001               	goto	l1759
   499  001316  D043               	goto	l260
   500  001318                     l1759:
   501                           
   502                           ; BSR set to: 0
   503                           ;main.c: 139: {
   504                           ;main.c: 140: writeBuffer[0] = *(pD + i);
   505  001318  0100               	movlb	0	; () banked
   506  00131A  5178               	movf	main@i& (0+255),w,b
   507  00131C  0D01               	mullw	1
   508  00131E  50F3               	movf	prodl,w,c
   509  001320  0100               	movlb	0	; () banked
   510  001322  2573               	addwf	main@pD& (0+255),w,b
   511  001324  6ED9               	movwf	fsr2l,c
   512  001326  50F4               	movf	prodh,w,c
   513  001328  0100               	movlb	0	; () banked
   514  00132A  2174               	addwfc	(main@pD+1)& (0+255),w,b
   515  00132C  6EDA               	movwf	fsr2h,c
   516  00132E  50DF               	movf	indf2,w,c
   517  001330  0100               	movlb	0	; () banked
   518  001332  6F77               	movwf	main@writeBuffer& (0+255),b
   519                           
   520                           ; BSR set to: 0
   521                           ;main.c: 141: timeout = 0;
   522  001334  0E00               	movlw	0
   523  001336  0100               	movlb	0	; () banked
   524  001338  6F76               	movwf	(main@timeout+1)& (0+255),b
   525  00133A  0E00               	movlw	0
   526  00133C  6F75               	movwf	main@timeout& (0+255),b
   527                           
   528                           ;main.c: 142: while((status != I2C1_MESSAGE_FAIL) && (status != I2C1_MESSAGE_COMPLETE) &
      +                          & (timeout < 3))
   529  00133E  D018               	goto	l1769
   530  001340                     l1763:
   531                           
   532                           ; BSR set to: 0
   533                           ;main.c: 143: {
   534                           ;main.c: 144: I2C1_MasterWrite(writeBuffer, 1, 0x40, &status);
   535  001340  0E77               	movlw	low main@writeBuffer
   536  001342  6E1D               	movwf	I2C1_MasterWrite@pdata,c
   537  001344  0E00               	movlw	high main@writeBuffer
   538  001346  6E1E               	movwf	I2C1_MasterWrite@pdata+1,c
   539  001348  0E01               	movlw	1
   540  00134A  6E1F               	movwf	I2C1_MasterWrite@length,c
   541  00134C  0E00               	movlw	0
   542  00134E  6E21               	movwf	I2C1_MasterWrite@address+1,c
   543  001350  0E40               	movlw	64
   544  001352  6E20               	movwf	I2C1_MasterWrite@address,c
   545  001354  0E79               	movlw	low main@status
   546  001356  6E22               	movwf	I2C1_MasterWrite@pflag,c
   547  001358  0E00               	movlw	high main@status
   548  00135A  6E23               	movwf	I2C1_MasterWrite@pflag+1,c
   549  00135C  EC1F  F00A         	call	_I2C1_MasterWrite	;wreg free
   550  001360                     l1765:
   551  001360  0E02               	movlw	2
   552  001362  0100               	movlb	0	; () banked
   553  001364  1979               	xorwf	main@status& (0+255),w,b
   554  001366  B4D8               	btfsc	status,2,c
   555  001368  D7FB               	goto	l1765
   556                           
   557                           ; BSR set to: 0
   558                           ;main.c: 149: timeout++;
   559                           
   560                           ; BSR set to: 0
   561  00136A  0100               	movlb	0	; () banked
   562  00136C  4B75               	infsnz	main@timeout& (0+255),f,b
   563  00136E  2B76               	incf	(main@timeout+1)& (0+255),f,b
   564  001370                     l1769:
   565                           
   566                           ; BSR set to: 0
   567  001370  0100               	movlb	0	; () banked
   568  001372  0579               	decf	main@status& (0+255),w,b
   569  001374  B4D8               	btfsc	status,2,c
   570  001376  D00D               	goto	l1775
   571                           
   572                           ; BSR set to: 0
   573  001378  0100               	movlb	0	; () banked
   574  00137A  5179               	movf	main@status& (0+255),w,b
   575  00137C  0100               	movlb	0	; () banked
   576  00137E  B4D8               	btfsc	status,2,c
   577  001380  D008               	goto	l1775
   578                           
   579                           ; BSR set to: 0
   580  001382  0100               	movlb	0	; () banked
   581  001384  5176               	movf	(main@timeout+1)& (0+255),w,b
   582  001386  E105               	bnz	l1775
   583  001388  0E03               	movlw	3
   584  00138A  0100               	movlb	0	; () banked
   585  00138C  5D75               	subwf	main@timeout& (0+255),w,b
   586  00138E  A0D8               	btfss	status,0,c
   587  001390  D7D7               	goto	l1763
   588  001392                     l1775:
   589                           
   590                           ; BSR set to: 0
   591                           ;main.c: 150: }
   592                           ;main.c: 152: _delay((unsigned long)((5)*(250000/4000.0)));
   593  001392  0E68               	movlw	104
   594  001394                     u1097:
   595  001394  2EE8               	decfsz	wreg,f,c
   596  001396  D7FE               	bra	u1097
   597  001398  0100               	movlb	0	; () banked
   598  00139A  2B78               	incf	main@i& (0+255),f,b
   599  00139C  D7B8               	goto	l1755
   600  00139E                     l260:
   601                           
   602                           ;main.c: 156: {
   603  00139E  D7FF               	goto	l260
   604  0013A0                     __end_of_main:
   605                           	opt stack 0
   606                           tblptru	equ	0xFF8
   607                           tblptrh	equ	0xFF7
   608                           tblptrl	equ	0xFF6
   609                           tablat	equ	0xFF5
   610                           prodh	equ	0xFF4
   611                           prodl	equ	0xFF3
   612                           postinc0	equ	0xFEE
   613                           wreg	equ	0xFE8
   614                           postdec1	equ	0xFE5
   615                           plusw1	equ	0xFE3
   616                           fsr1l	equ	0xFE1
   617                           indf2	equ	0xFDF
   618                           plusw2	equ	0xFDB
   619                           fsr2h	equ	0xFDA
   620                           fsr2l	equ	0xFD9
   621                           status	equ	0xFD8
   622                           
   623 ;; *************** function _SYSTEM_Initialize *****************
   624 ;; Defined at:
   625 ;;		line 116 in file "mcc_generated_files/mcc.c"
   626 ;; Parameters:    Size  Location     Type
   627 ;;		None
   628 ;; Auto vars:     Size  Location     Type
   629 ;;		None
   630 ;; Return value:  Size  Location     Type
   631 ;;                  1    wreg      void 
   632 ;; Registers used:
   633 ;;		wreg, status,2, status,0, cstack
   634 ;; Tracked objects:
   635 ;;		On entry : 0/0
   636 ;;		On exit  : 0/0
   637 ;;		Unchanged: 0/0
   638 ;; Data sizes:     COMRAM   BANK0   BANK1   BANK2   BANK3   BANK4   BANK5   BANK6   BANK7
   639 ;;      Params:         0       0       0       0       0       0       0       0       0
   640 ;;      Locals:         0       0       0       0       0       0       0       0       0
   641 ;;      Temps:          0       0       0       0       0       0       0       0       0
   642 ;;      Totals:         0       0       0       0       0       0       0       0       0
   643 ;;Total ram usage:        0 bytes
   644 ;; Hardware stack levels used:    1
   645 ;; Hardware stack levels required when called:    4
   646 ;; This function calls:
   647 ;;		_I2C1_Initialize
   648 ;;		_INTERRUPT_Initialize
   649 ;;		_OSCILLATOR_Initialize
   650 ;;		_PIN_MANAGER_Initialize
   651 ;; This function is called by:
   652 ;;		_main
   653 ;; This function uses a non-reentrant model
   654 ;;
   655                           
   656                           	psect	text1
   657  0015EC                     __ptext1:
   658                           	opt stack 0
   659  0015EC                     _SYSTEM_Initialize:
   660                           	opt stack 26
   661                           
   662                           ;mcc.c: 119: INTERRUPT_Initialize();
   663                           
   664                           ;incstack = 0
   665  0015EC  EC08  F00B         	call	_INTERRUPT_Initialize	;wreg free
   666                           
   667                           ;mcc.c: 120: PIN_MANAGER_Initialize();
   668  0015F0  EC67  F00A         	call	_PIN_MANAGER_Initialize	;wreg free
   669                           
   670                           ;mcc.c: 121: OSCILLATOR_Initialize();
   671  0015F4  ECFF  F00A         	call	_OSCILLATOR_Initialize	;wreg free
   672                           
   673                           ;mcc.c: 122: I2C1_Initialize();
   674  0015F8  ECCA  F00A         	call	_I2C1_Initialize	;wreg free
   675  0015FC  0012               	return		;funcret
   676  0015FE                     __end_of_SYSTEM_Initialize:
   677                           	opt stack 0
   678                           tblptru	equ	0xFF8
   679                           tblptrh	equ	0xFF7
   680                           tblptrl	equ	0xFF6
   681                           tablat	equ	0xFF5
   682                           prodh	equ	0xFF4
   683                           prodl	equ	0xFF3
   684                           postinc0	equ	0xFEE
   685                           wreg	equ	0xFE8
   686                           postdec1	equ	0xFE5
   687                           plusw1	equ	0xFE3
   688                           fsr1l	equ	0xFE1
   689                           indf2	equ	0xFDF
   690                           plusw2	equ	0xFDB
   691                           fsr2h	equ	0xFDA
   692                           fsr2l	equ	0xFD9
   693                           status	equ	0xFD8
   694                           
   695 ;; *************** function _PIN_MANAGER_Initialize *****************
   696 ;; Defined at:
   697 ;;		line 52 in file "mcc_generated_files/pin_manager.c"
   698 ;; Parameters:    Size  Location     Type
   699 ;;		None
   700 ;; Auto vars:     Size  Location     Type
   701 ;;		None
   702 ;; Return value:  Size  Location     Type
   703 ;;                  1    wreg      void 
   704 ;; Registers used:
   705 ;;		wreg, status,2
   706 ;; Tracked objects:
   707 ;;		On entry : 0/0
   708 ;;		On exit  : 0/0
   709 ;;		Unchanged: 0/0
   710 ;; Data sizes:     COMRAM   BANK0   BANK1   BANK2   BANK3   BANK4   BANK5   BANK6   BANK7
   711 ;;      Params:         0       0       0       0       0       0       0       0       0
   712 ;;      Locals:         0       0       0       0       0       0       0       0       0
   713 ;;      Temps:          0       0       0       0       0       0       0       0       0
   714 ;;      Totals:         0       0       0       0       0       0       0       0       0
   715 ;;Total ram usage:        0 bytes
   716 ;; Hardware stack levels used:    1
   717 ;; Hardware stack levels required when called:    3
   718 ;; This function calls:
   719 ;;		Nothing
   720 ;; This function is called by:
   721 ;;		_SYSTEM_Initialize
   722 ;; This function uses a non-reentrant model
   723 ;;
   724                           
   725                           	psect	text2
   726  0014CE                     __ptext2:
   727                           	opt stack 0
   728  0014CE                     _PIN_MANAGER_Initialize:
   729                           	opt stack 26
   730                           
   731                           ;pin_manager.c: 57: LATE = 0x00;
   732                           
   733                           ;incstack = 0
   734  0014CE  0E00               	movlw	0
   735  0014D0  6E8D               	movwf	3981,c	;volatile
   736                           
   737                           ;pin_manager.c: 58: LATD = 0x00;
   738  0014D2  0E00               	movlw	0
   739  0014D4  6E8C               	movwf	3980,c	;volatile
   740                           
   741                           ;pin_manager.c: 59: LATA = 0x00;
   742  0014D6  0E00               	movlw	0
   743  0014D8  6E89               	movwf	3977,c	;volatile
   744                           
   745                           ;pin_manager.c: 60: LATB = 0x00;
   746  0014DA  0E00               	movlw	0
   747  0014DC  6E8A               	movwf	3978,c	;volatile
   748                           
   749                           ;pin_manager.c: 61: LATC = 0x00;
   750  0014DE  0E00               	movlw	0
   751  0014E0  6E8B               	movwf	3979,c	;volatile
   752                           
   753                           ;pin_manager.c: 66: TRISE = 0x07;
   754  0014E2  0E07               	movlw	7
   755  0014E4  6E96               	movwf	3990,c	;volatile
   756                           
   757                           ;pin_manager.c: 67: TRISA = 0xFF;
   758  0014E6  6892               	setf	3986,c	;volatile
   759                           
   760                           ;pin_manager.c: 68: TRISB = 0xFF;
   761  0014E8  6893               	setf	3987,c	;volatile
   762                           
   763                           ;pin_manager.c: 69: TRISC = 0xC7;
   764  0014EA  0EC7               	movlw	199
   765  0014EC  6E94               	movwf	3988,c	;volatile
   766                           
   767                           ;pin_manager.c: 70: TRISD = 0xFF;
   768  0014EE  6895               	setf	3989,c	;volatile
   769                           
   770                           ;pin_manager.c: 75: ANSELC = 0xC4;
   771  0014F0  0EC4               	movlw	196
   772  0014F2  010F               	movlb	15	; () banked
   773  0014F4  6F5D               	movwf	93,b	;volatile
   774                           
   775                           ;pin_manager.c: 76: ANSELB = 0x3C;
   776  0014F6  0E3C               	movlw	60
   777  0014F8  010F               	movlb	15	; () banked
   778  0014FA  6F5C               	movwf	92,b	;volatile
   779                           
   780                           ; BSR set to: 15
   781                           ;pin_manager.c: 77: ANSELD = 0xFF;
   782  0014FC  010F               	movlb	15	; () banked
   783  0014FE  695E               	setf	94,b	;volatile
   784                           
   785                           ;pin_manager.c: 78: ANSELE = 0x07;
   786  001500  0E07               	movlw	7
   787  001502  010F               	movlb	15	; () banked
   788  001504  6F5F               	movwf	95,b	;volatile
   789                           
   790                           ;pin_manager.c: 79: ANSELA = 0x2F;
   791  001506  0E2F               	movlw	47
   792  001508  010F               	movlb	15	; () banked
   793  00150A  6F5B               	movwf	91,b	;volatile
   794                           
   795                           ; BSR set to: 15
   796                           ;pin_manager.c: 84: WPUB = 0xFF;
   797  00150C  6885               	setf	3973,c	;volatile
   798                           
   799                           ; BSR set to: 15
   800                           ;pin_manager.c: 85: INTCON2bits.nRBPU = 0;
   801  00150E  9EF1               	bcf	intcon2,7,c	;volatile
   802                           
   803                           ; BSR set to: 15
   804  001510  0012               	return		;funcret
   805  001512                     __end_of_PIN_MANAGER_Initialize:
   806                           	opt stack 0
   807                           tblptru	equ	0xFF8
   808                           tblptrh	equ	0xFF7
   809                           tblptrl	equ	0xFF6
   810                           tablat	equ	0xFF5
   811                           prodh	equ	0xFF4
   812                           prodl	equ	0xFF3
   813                           intcon2	equ	0xFF1
   814                           postinc0	equ	0xFEE
   815                           wreg	equ	0xFE8
   816                           postdec1	equ	0xFE5
   817                           plusw1	equ	0xFE3
   818                           fsr1l	equ	0xFE1
   819                           indf2	equ	0xFDF
   820                           plusw2	equ	0xFDB
   821                           fsr2h	equ	0xFDA
   822                           fsr2l	equ	0xFD9
   823                           status	equ	0xFD8
   824                           
   825 ;; *************** function _OSCILLATOR_Initialize *****************
   826 ;; Defined at:
   827 ;;		line 125 in file "mcc_generated_files/mcc.c"
   828 ;; Parameters:    Size  Location     Type
   829 ;;		None
   830 ;; Auto vars:     Size  Location     Type
   831 ;;		None
   832 ;; Return value:  Size  Location     Type
   833 ;;                  1    wreg      void 
   834 ;; Registers used:
   835 ;;		wreg, status,2
   836 ;; Tracked objects:
   837 ;;		On entry : 0/0
   838 ;;		On exit  : 0/0
   839 ;;		Unchanged: 0/0
   840 ;; Data sizes:     COMRAM   BANK0   BANK1   BANK2   BANK3   BANK4   BANK5   BANK6   BANK7
   841 ;;      Params:         0       0       0       0       0       0       0       0       0
   842 ;;      Locals:         0       0       0       0       0       0       0       0       0
   843 ;;      Temps:          0       0       0       0       0       0       0       0       0
   844 ;;      Totals:         0       0       0       0       0       0       0       0       0
   845 ;;Total ram usage:        0 bytes
   846 ;; Hardware stack levels used:    1
   847 ;; Hardware stack levels required when called:    3
   848 ;; This function calls:
   849 ;;		Nothing
   850 ;; This function is called by:
   851 ;;		_SYSTEM_Initialize
   852 ;; This function uses a non-reentrant model
   853 ;;
   854                           
   855                           	psect	text3
   856  0015FE                     __ptext3:
   857                           	opt stack 0
   858  0015FE                     _OSCILLATOR_Initialize:
   859                           	opt stack 26
   860                           
   861                           ;mcc.c: 128: OSCCON = 0x10;
   862                           
   863                           ; BSR set to: 15
   864                           ;incstack = 0
   865  0015FE  0E10               	movlw	16
   866  001600  6ED3               	movwf	4051,c	;volatile
   867                           
   868                           ;mcc.c: 130: OSCCON2 = 0x00;
   869  001602  0E00               	movlw	0
   870  001604  6ED2               	movwf	4050,c	;volatile
   871                           
   872                           ;mcc.c: 132: OSCTUNE = 0x00;
   873  001606  0E00               	movlw	0
   874  001608  6E9B               	movwf	3995,c	;volatile
   875                           
   876                           ;mcc.c: 134: ACTCON = 0x00;
   877  00160A  0E00               	movlw	0
   878  00160C  6EB5               	movwf	4021,c	;volatile
   879  00160E  0012               	return		;funcret
   880  001610                     __end_of_OSCILLATOR_Initialize:
   881                           	opt stack 0
   882                           tblptru	equ	0xFF8
   883                           tblptrh	equ	0xFF7
   884                           tblptrl	equ	0xFF6
   885                           tablat	equ	0xFF5
   886                           prodh	equ	0xFF4
   887                           prodl	equ	0xFF3
   888                           intcon2	equ	0xFF1
   889                           postinc0	equ	0xFEE
   890                           wreg	equ	0xFE8
   891                           postdec1	equ	0xFE5
   892                           plusw1	equ	0xFE3
   893                           fsr1l	equ	0xFE1
   894                           indf2	equ	0xFDF
   895                           plusw2	equ	0xFDB
   896                           fsr2h	equ	0xFDA
   897                           fsr2l	equ	0xFD9
   898                           status	equ	0xFD8
   899                           
   900 ;; *************** function _INTERRUPT_Initialize *****************
   901 ;; Defined at:
   902 ;;		line 51 in file "mcc_generated_files/interrupt_manager.c"
   903 ;; Parameters:    Size  Location     Type
   904 ;;		None
   905 ;; Auto vars:     Size  Location     Type
   906 ;;		None
   907 ;; Return value:  Size  Location     Type
   908 ;;                  1    wreg      void 
   909 ;; Registers used:
   910 ;;		None
   911 ;; Tracked objects:
   912 ;;		On entry : 0/0
   913 ;;		On exit  : 0/0
   914 ;;		Unchanged: 0/0
   915 ;; Data sizes:     COMRAM   BANK0   BANK1   BANK2   BANK3   BANK4   BANK5   BANK6   BANK7
   916 ;;      Params:         0       0       0       0       0       0       0       0       0
   917 ;;      Locals:         0       0       0       0       0       0       0       0       0
   918 ;;      Temps:          0       0       0       0       0       0       0       0       0
   919 ;;      Totals:         0       0       0       0       0       0       0       0       0
   920 ;;Total ram usage:        0 bytes
   921 ;; Hardware stack levels used:    1
   922 ;; Hardware stack levels required when called:    3
   923 ;; This function calls:
   924 ;;		Nothing
   925 ;; This function is called by:
   926 ;;		_SYSTEM_Initialize
   927 ;; This function uses a non-reentrant model
   928 ;;
   929                           
   930                           	psect	text4
   931  001610                     __ptext4:
   932                           	opt stack 0
   933  001610                     _INTERRUPT_Initialize:
   934                           	opt stack 26
   935                           
   936                           ;interrupt_manager.c: 54: RCONbits.IPEN = 0;
   937                           
   938                           ;incstack = 0
   939  001610  9ED0               	bcf	4048,7,c	;volatile
   940  001612  0012               	return		;funcret
   941  001614                     __end_of_INTERRUPT_Initialize:
   942                           	opt stack 0
   943                           tblptru	equ	0xFF8
   944                           tblptrh	equ	0xFF7
   945                           tblptrl	equ	0xFF6
   946                           tablat	equ	0xFF5
   947                           prodh	equ	0xFF4
   948                           prodl	equ	0xFF3
   949                           intcon2	equ	0xFF1
   950                           postinc0	equ	0xFEE
   951                           wreg	equ	0xFE8
   952                           postdec1	equ	0xFE5
   953                           plusw1	equ	0xFE3
   954                           fsr1l	equ	0xFE1
   955                           indf2	equ	0xFDF
   956                           plusw2	equ	0xFDB
   957                           fsr2h	equ	0xFDA
   958                           fsr2l	equ	0xFD9
   959                           status	equ	0xFD8
   960                           
   961 ;; *************** function _I2C1_Initialize *****************
   962 ;; Defined at:
   963 ;;		line 198 in file "mcc_generated_files/i2c1.c"
   964 ;; Parameters:    Size  Location     Type
   965 ;;		None
   966 ;; Auto vars:     Size  Location     Type
   967 ;;		None
   968 ;; Return value:  Size  Location     Type
   969 ;;                  1    wreg      void 
   970 ;; Registers used:
   971 ;;		wreg, status,2, status,0
   972 ;; Tracked objects:
   973 ;;		On entry : 0/0
   974 ;;		On exit  : 0/0
   975 ;;		Unchanged: 0/0
   976 ;; Data sizes:     COMRAM   BANK0   BANK1   BANK2   BANK3   BANK4   BANK5   BANK6   BANK7
   977 ;;      Params:         0       0       0       0       0       0       0       0       0
   978 ;;      Locals:         0       0       0       0       0       0       0       0       0
   979 ;;      Temps:          0       0       0       0       0       0       0       0       0
   980 ;;      Totals:         0       0       0       0       0       0       0       0       0
   981 ;;Total ram usage:        0 bytes
   982 ;; Hardware stack levels used:    1
   983 ;; Hardware stack levels required when called:    3
   984 ;; This function calls:
   985 ;;		Nothing
   986 ;; This function is called by:
   987 ;;		_SYSTEM_Initialize
   988 ;; This function uses a non-reentrant model
   989 ;;
   990                           
   991                           	psect	text5
   992  001594                     __ptext5:
   993                           	opt stack 0
   994  001594                     _I2C1_Initialize:
   995                           	opt stack 26
   996                           
   997                           ;i2c1.c: 200: i2c1_object.pTrHead = i2c1_tr_queue;
   998                           
   999                           ;incstack = 0
  1000  001594  0E3A               	movlw	low _i2c1_tr_queue
  1001  001596  6E26               	movwf	_i2c1_object+2,c
  1002  001598  0E00               	movlw	high _i2c1_tr_queue
  1003  00159A  6E27               	movwf	_i2c1_object+3,c
  1004                           
  1005                           ;i2c1.c: 201: i2c1_object.pTrTail = i2c1_tr_queue;
  1006  00159C  0E3A               	movlw	low _i2c1_tr_queue
  1007  00159E  6E24               	movwf	_i2c1_object,c
  1008  0015A0  0E00               	movlw	high _i2c1_tr_queue
  1009  0015A2  6E25               	movwf	_i2c1_object+1,c
  1010                           
  1011                           ;i2c1.c: 202: i2c1_object.trStatus.s.empty = 1;
  1012  0015A4  8228               	bsf	_i2c1_object+4,1,c
  1013                           
  1014                           ;i2c1.c: 203: i2c1_object.trStatus.s.full = 0;
  1015  0015A6  9028               	bcf	_i2c1_object+4,0,c
  1016                           
  1017                           ;i2c1.c: 205: i2c1_object.i2cErrors = 0;
  1018  0015A8  0E00               	movlw	0
  1019  0015AA  6E2A               	movwf	_i2c1_object+6,c
  1020                           
  1021                           ;i2c1.c: 208: SSP1STAT = 0x80;
  1022  0015AC  0E80               	movlw	128
  1023  0015AE  6EC7               	movwf	4039,c	;volatile
  1024                           
  1025                           ;i2c1.c: 210: SSP1CON1 = 0x28;
  1026  0015B0  0E28               	movlw	40
  1027  0015B2  6EC6               	movwf	4038,c	;volatile
  1028                           
  1029                           ;i2c1.c: 212: SSP1CON3 = 0x08;
  1030  0015B4  0E08               	movlw	8
  1031  0015B6  6ECB               	movwf	4043,c	;volatile
  1032                           
  1033                           ;i2c1.c: 214: SSP1ADD = 0x03;
  1034  0015B8  0E03               	movlw	3
  1035  0015BA  6EC8               	movwf	4040,c	;volatile
  1036                           
  1037                           ;i2c1.c: 218: PIR1bits.SSP1IF = 0;
  1038  0015BC  969E               	bcf	3998,3,c	;volatile
  1039                           
  1040                           ;i2c1.c: 220: PIE1bits.SSP1IE = 1;
  1041  0015BE  869D               	bsf	3997,3,c	;volatile
  1042  0015C0  0012               	return		;funcret
  1043  0015C2                     __end_of_I2C1_Initialize:
  1044                           	opt stack 0
  1045                           tblptru	equ	0xFF8
  1046                           tblptrh	equ	0xFF7
  1047                           tblptrl	equ	0xFF6
  1048                           tablat	equ	0xFF5
  1049                           prodh	equ	0xFF4
  1050                           prodl	equ	0xFF3
  1051                           intcon2	equ	0xFF1
  1052                           postinc0	equ	0xFEE
  1053                           wreg	equ	0xFE8
  1054                           postdec1	equ	0xFE5
  1055                           plusw1	equ	0xFE3
  1056                           fsr1l	equ	0xFE1
  1057                           indf2	equ	0xFDF
  1058                           plusw2	equ	0xFDB
  1059                           fsr2h	equ	0xFDA
  1060                           fsr2l	equ	0xFD9
  1061                           status	equ	0xFD8
  1062                           
  1063 ;; *************** function _I2C1_MasterWrite *****************
  1064 ;; Defined at:
  1065 ;;		line 598 in file "mcc_generated_files/i2c1.c"
  1066 ;; Parameters:    Size  Location     Type
  1067 ;;  pdata           2   28[COMRAM] PTR unsigned char 
  1068 ;;		 -> main@writeBuffer(1), 
  1069 ;;  length          1   30[COMRAM] unsigned char 
  1070 ;;  address         2   31[COMRAM] unsigned int 
  1071 ;;  pflag           2   33[COMRAM] PTR enum E5751
  1072 ;;		 -> main@status(1), 
  1073 ;; Auto vars:     Size  Location     Type
  1074 ;;		None
  1075 ;; Return value:  Size  Location     Type
  1076 ;;                  1    wreg      void 
  1077 ;; Registers used:
  1078 ;;		wreg, fsr2l, fsr2h, status,2, status,0, cstack
  1079 ;; Tracked objects:
  1080 ;;		On entry : 0/0
  1081 ;;		On exit  : 0/0
  1082 ;;		Unchanged: 0/0
  1083 ;; Data sizes:     COMRAM   BANK0   BANK1   BANK2   BANK3   BANK4   BANK5   BANK6   BANK7
  1084 ;;      Params:         7       0       0       0       0       0       0       0       0
  1085 ;;      Locals:         0       0       0       0       0       0       0       0       0
  1086 ;;      Temps:          0       0       0       0       0       0       0       0       0
  1087 ;;      Totals:         7       0       0       0       0       0       0       0       0
  1088 ;;Total ram usage:        7 bytes
  1089 ;; Hardware stack levels used:    1
  1090 ;; Hardware stack levels required when called:    4
  1091 ;; This function calls:
  1092 ;;		_I2C1_MasterTRBInsert
  1093 ;;		_I2C1_MasterWriteTRBBuild
  1094 ;; This function is called by:
  1095 ;;		_main
  1096 ;; This function uses a non-reentrant model
  1097 ;;
  1098                           
  1099                           	psect	text6
  1100  00143E                     __ptext6:
  1101                           	opt stack 0
  1102  00143E                     _I2C1_MasterWrite:
  1103                           	opt stack 26
  1104                           
  1105                           ;i2c1.c: 604: static I2C1_TRANSACTION_REQUEST_BLOCK trBlock;
  1106                           ;i2c1.c: 607: if (i2c1_object.trStatus.s.full != 1)
  1107                           
  1108                           ;incstack = 0
  1109  00143E  B028               	btfsc	_i2c1_object+4,0,c
  1110  001440  D01C               	goto	l1723
  1111                           
  1112                           ;i2c1.c: 608: {
  1113                           ;i2c1.c: 609: I2C1_MasterWriteTRBBuild(&trBlock, pdata, length, address);
  1114  001442  0E35               	movlw	low I2C1_MasterWrite@trBlock
  1115  001444  6E14               	movwf	I2C1_MasterWriteTRBBuild@ptrb,c
  1116  001446  0E00               	movlw	high I2C1_MasterWrite@trBlock
  1117  001448  6E15               	movwf	I2C1_MasterWriteTRBBuild@ptrb+1,c
  1118  00144A  C01D  F016         	movff	I2C1_MasterWrite@pdata,I2C1_MasterWriteTRBBuild@pdata
  1119  00144E  C01E  F017         	movff	I2C1_MasterWrite@pdata+1,I2C1_MasterWriteTRBBuild@pdata+1
  1120  001452  C01F  F018         	movff	I2C1_MasterWrite@length,I2C1_MasterWriteTRBBuild@length
  1121  001456  C020  F019         	movff	I2C1_MasterWrite@address,I2C1_MasterWriteTRBBuild@address
  1122  00145A  C021  F01A         	movff	I2C1_MasterWrite@address+1,I2C1_MasterWriteTRBBuild@address+1
  1123  00145E  EC89  F00A         	call	_I2C1_MasterWriteTRBBuild	;wreg free
  1124                           
  1125                           ;i2c1.c: 610: I2C1_MasterTRBInsert(1, &trBlock, pflag);
  1126  001462  0E35               	movlw	low I2C1_MasterWrite@trBlock
  1127  001464  6E14               	movwf	I2C1_MasterTRBInsert@ptrb_list,c
  1128  001466  0E00               	movlw	high I2C1_MasterWrite@trBlock
  1129  001468  6E15               	movwf	I2C1_MasterTRBInsert@ptrb_list+1,c
  1130  00146A  C022  F016         	movff	I2C1_MasterWrite@pflag,I2C1_MasterTRBInsert@pflag
  1131  00146E  C023  F017         	movff	I2C1_MasterWrite@pflag+1,I2C1_MasterTRBInsert@pflag+1
  1132  001472  0E01               	movlw	1
  1133  001474  ECD0  F009         	call	_I2C1_MasterTRBInsert
  1134                           
  1135                           ;i2c1.c: 611: }
  1136  001478  0012               	return	
  1137  00147A                     l1723:
  1138                           
  1139                           ;i2c1.c: 612: else
  1140                           ;i2c1.c: 613: {
  1141                           ;i2c1.c: 614: *pflag = I2C1_MESSAGE_FAIL;
  1142  00147A  C022  FFD9         	movff	I2C1_MasterWrite@pflag,fsr2l
  1143  00147E  C023  FFDA         	movff	I2C1_MasterWrite@pflag+1,fsr2h
  1144  001482  0E01               	movlw	1
  1145  001484  6EDF               	movwf	indf2,c
  1146  001486  0012               	return	
  1147  001488                     __end_of_I2C1_MasterWrite:
  1148                           	opt stack 0
  1149                           tblptru	equ	0xFF8
  1150                           tblptrh	equ	0xFF7
  1151                           tblptrl	equ	0xFF6
  1152                           tablat	equ	0xFF5
  1153                           prodh	equ	0xFF4
  1154                           prodl	equ	0xFF3
  1155                           intcon2	equ	0xFF1
  1156                           postinc0	equ	0xFEE
  1157                           wreg	equ	0xFE8
  1158                           postdec1	equ	0xFE5
  1159                           plusw1	equ	0xFE3
  1160                           fsr1l	equ	0xFE1
  1161                           indf2	equ	0xFDF
  1162                           plusw2	equ	0xFDB
  1163                           fsr2h	equ	0xFDA
  1164                           fsr2l	equ	0xFD9
  1165                           status	equ	0xFD8
  1166                           
  1167 ;; *************** function _I2C1_MasterWriteTRBBuild *****************
  1168 ;; Defined at:
  1169 ;;		line 707 in file "mcc_generated_files/i2c1.c"
  1170 ;; Parameters:    Size  Location     Type
  1171 ;;  ptrb            2   19[COMRAM] PTR struct .
  1172 ;;		 -> I2C1_MasterWrite@trBlock(5), 
  1173 ;;  pdata           2   21[COMRAM] PTR unsigned char 
  1174 ;;		 -> main@writeBuffer(1), 
  1175 ;;  length          1   23[COMRAM] unsigned char 
  1176 ;;  address         2   24[COMRAM] unsigned int 
  1177 ;; Auto vars:     Size  Location     Type
  1178 ;;		None
  1179 ;; Return value:  Size  Location     Type
  1180 ;;                  1    wreg      void 
  1181 ;; Registers used:
  1182 ;;		wreg, fsr2l, fsr2h, status,2, status,0
  1183 ;; Tracked objects:
  1184 ;;		On entry : 0/0
  1185 ;;		On exit  : 0/0
  1186 ;;		Unchanged: 0/0
  1187 ;; Data sizes:     COMRAM   BANK0   BANK1   BANK2   BANK3   BANK4   BANK5   BANK6   BANK7
  1188 ;;      Params:         7       0       0       0       0       0       0       0       0
  1189 ;;      Locals:         0       0       0       0       0       0       0       0       0
  1190 ;;      Temps:          2       0       0       0       0       0       0       0       0
  1191 ;;      Totals:         9       0       0       0       0       0       0       0       0
  1192 ;;Total ram usage:        9 bytes
  1193 ;; Hardware stack levels used:    1
  1194 ;; Hardware stack levels required when called:    3
  1195 ;; This function calls:
  1196 ;;		Nothing
  1197 ;; This function is called by:
  1198 ;;		_I2C1_MasterWrite
  1199 ;; This function uses a non-reentrant model
  1200 ;;
  1201                           
  1202                           	psect	text7
  1203  001512                     __ptext7:
  1204                           	opt stack 0
  1205  001512                     _I2C1_MasterWriteTRBBuild:
  1206                           	opt stack 26
  1207                           
  1208                           ;i2c1.c: 713: ptrb->address = address << 1;
  1209                           
  1210                           ;incstack = 0
  1211  001512  C019  F01B         	movff	I2C1_MasterWriteTRBBuild@address,??_I2C1_MasterWriteTRBBuild
  1212  001516  C01A  F01C         	movff	I2C1_MasterWriteTRBBuild@address+1,??_I2C1_MasterWriteTRBBuild+1
  1213  00151A  90D8               	bcf	status,0,c
  1214  00151C  361B               	rlcf	??_I2C1_MasterWriteTRBBuild,f,c
  1215  00151E  361C               	rlcf	??_I2C1_MasterWriteTRBBuild+1,f,c
  1216  001520  C014  FFD9         	movff	I2C1_MasterWriteTRBBuild@ptrb,fsr2l
  1217  001524  C015  FFDA         	movff	I2C1_MasterWriteTRBBuild@ptrb+1,fsr2h
  1218  001528  C01B  FFDE         	movff	??_I2C1_MasterWriteTRBBuild,postinc2
  1219  00152C  C01C  FFDD         	movff	??_I2C1_MasterWriteTRBBuild+1,postdec2
  1220                           
  1221                           ;i2c1.c: 714: ptrb->length = length;
  1222  001530  EE20 F002          	lfsr	2,2
  1223  001534  5014               	movf	I2C1_MasterWriteTRBBuild@ptrb,w,c
  1224  001536  26D9               	addwf	fsr2l,f,c
  1225  001538  5015               	movf	I2C1_MasterWriteTRBBuild@ptrb+1,w,c
  1226  00153A  22DA               	addwfc	fsr2h,f,c
  1227  00153C  C018  FFDF         	movff	I2C1_MasterWriteTRBBuild@length,indf2
  1228                           
  1229                           ;i2c1.c: 715: ptrb->pbuffer = pdata;
  1230  001540  EE20 F003          	lfsr	2,3
  1231  001544  5014               	movf	I2C1_MasterWriteTRBBuild@ptrb,w,c
  1232  001546  26D9               	addwf	fsr2l,f,c
  1233  001548  5015               	movf	I2C1_MasterWriteTRBBuild@ptrb+1,w,c
  1234  00154A  22DA               	addwfc	fsr2h,f,c
  1235  00154C  C016  FFDE         	movff	I2C1_MasterWriteTRBBuild@pdata,postinc2
  1236  001550  C017  FFDD         	movff	I2C1_MasterWriteTRBBuild@pdata+1,postdec2
  1237  001554  0012               	return		;funcret
  1238  001556                     __end_of_I2C1_MasterWriteTRBBuild:
  1239                           	opt stack 0
  1240                           tblptru	equ	0xFF8
  1241                           tblptrh	equ	0xFF7
  1242                           tblptrl	equ	0xFF6
  1243                           tablat	equ	0xFF5
  1244                           prodh	equ	0xFF4
  1245                           prodl	equ	0xFF3
  1246                           intcon2	equ	0xFF1
  1247                           postinc0	equ	0xFEE
  1248                           wreg	equ	0xFE8
  1249                           postdec1	equ	0xFE5
  1250                           plusw1	equ	0xFE3
  1251                           fsr1l	equ	0xFE1
  1252                           indf2	equ	0xFDF
  1253                           postinc2	equ	0xFDE
  1254                           postdec2	equ	0xFDD
  1255                           plusw2	equ	0xFDB
  1256                           fsr2h	equ	0xFDA
  1257                           fsr2l	equ	0xFD9
  1258                           status	equ	0xFD8
  1259                           
  1260 ;; *************** function _I2C1_MasterTRBInsert *****************
  1261 ;; Defined at:
  1262 ;;		line 641 in file "mcc_generated_files/i2c1.c"
  1263 ;; Parameters:    Size  Location     Type
  1264 ;;  count           1    wreg     unsigned char 
  1265 ;;  ptrb_list       2   19[COMRAM] PTR struct .
  1266 ;;		 -> I2C1_MasterRead@trBlock(5), I2C1_MasterWrite@trBlock(5), 
  1267 ;;  pflag           2   21[COMRAM] PTR enum E5751
  1268 ;;		 -> main@status(1), 
  1269 ;; Auto vars:     Size  Location     Type
  1270 ;;  count           1   24[COMRAM] unsigned char 
  1271 ;; Return value:  Size  Location     Type
  1272 ;;                  1    wreg      void 
  1273 ;; Registers used:
  1274 ;;		wreg, fsr2l, fsr2h, status,2, status,0
  1275 ;; Tracked objects:
  1276 ;;		On entry : 0/0
  1277 ;;		On exit  : 0/0
  1278 ;;		Unchanged: 0/0
  1279 ;; Data sizes:     COMRAM   BANK0   BANK1   BANK2   BANK3   BANK4   BANK5   BANK6   BANK7
  1280 ;;      Params:         4       0       0       0       0       0       0       0       0
  1281 ;;      Locals:         1       0       0       0       0       0       0       0       0
  1282 ;;      Temps:          1       0       0       0       0       0       0       0       0
  1283 ;;      Totals:         6       0       0       0       0       0       0       0       0
  1284 ;;Total ram usage:        6 bytes
  1285 ;; Hardware stack levels used:    1
  1286 ;; Hardware stack levels required when called:    3
  1287 ;; This function calls:
  1288 ;;		Nothing
  1289 ;; This function is called by:
  1290 ;;		_I2C1_MasterWrite
  1291 ;;		_I2C1_MasterRead
  1292 ;; This function uses a non-reentrant model
  1293 ;;
  1294                           
  1295                           	psect	text8
  1296  0013A0                     __ptext8:
  1297                           	opt stack 0
  1298  0013A0                     _I2C1_MasterTRBInsert:
  1299                           	opt stack 26
  1300                           
  1301                           ;incstack = 0
  1302                           ;I2C1_MasterTRBInsert@count stored from wreg
  1303  0013A0  6E19               	movwf	I2C1_MasterTRBInsert@count,c
  1304                           
  1305                           ;i2c1.c: 648: if (i2c1_object.trStatus.s.full != 1)
  1306  0013A2  B028               	btfsc	_i2c1_object+4,0,c
  1307  0013A4  D039               	goto	l1569
  1308                           
  1309                           ;i2c1.c: 649: {
  1310                           ;i2c1.c: 650: *pflag = I2C1_MESSAGE_PENDING;
  1311  0013A6  C016  FFD9         	movff	I2C1_MasterTRBInsert@pflag,fsr2l
  1312  0013AA  C017  FFDA         	movff	I2C1_MasterTRBInsert@pflag+1,fsr2h
  1313  0013AE  0E02               	movlw	2
  1314  0013B0  6EDF               	movwf	indf2,c
  1315                           
  1316                           ;i2c1.c: 652: i2c1_object.pTrTail->ptrb_list = ptrb_list;
  1317  0013B2  EE20 F001          	lfsr	2,1
  1318  0013B6  5024               	movf	_i2c1_object,w,c
  1319  0013B8  26D9               	addwf	fsr2l,f,c
  1320  0013BA  5025               	movf	_i2c1_object+1,w,c
  1321  0013BC  22DA               	addwfc	fsr2h,f,c
  1322  0013BE  C014  FFDE         	movff	I2C1_MasterTRBInsert@ptrb_list,postinc2
  1323  0013C2  C015  FFDD         	movff	I2C1_MasterTRBInsert@ptrb_list+1,postdec2
  1324                           
  1325                           ;i2c1.c: 653: i2c1_object.pTrTail->count = count;
  1326  0013C6  C024  FFD9         	movff	_i2c1_object,fsr2l
  1327  0013CA  C025  FFDA         	movff	_i2c1_object+1,fsr2h
  1328  0013CE  C019  FFDF         	movff	I2C1_MasterTRBInsert@count,indf2
  1329                           
  1330                           ;i2c1.c: 654: i2c1_object.pTrTail->pTrFlag = pflag;
  1331  0013D2  EE20 F003          	lfsr	2,3
  1332  0013D6  5024               	movf	_i2c1_object,w,c
  1333  0013D8  26D9               	addwf	fsr2l,f,c
  1334  0013DA  5025               	movf	_i2c1_object+1,w,c
  1335  0013DC  22DA               	addwfc	fsr2h,f,c
  1336  0013DE  C016  FFDE         	movff	I2C1_MasterTRBInsert@pflag,postinc2
  1337  0013E2  C017  FFDD         	movff	I2C1_MasterTRBInsert@pflag+1,postdec2
  1338                           
  1339                           ;i2c1.c: 655: i2c1_object.pTrTail++;
  1340  0013E6  0E05               	movlw	5
  1341  0013E8  2624               	addwf	_i2c1_object,f,c
  1342  0013EA  0E00               	movlw	0
  1343  0013EC  2225               	addwfc	_i2c1_object+1,f,c
  1344                           
  1345                           ;i2c1.c: 658: if (i2c1_object.pTrTail == (i2c1_tr_queue + 1))
  1346  0013EE  0E3F               	movlw	low (_i2c1_tr_queue+5)
  1347  0013F0  1824               	xorwf	_i2c1_object,w,c
  1348  0013F2  E108               	bnz	l1565
  1349  0013F4  0E00               	movlw	high (_i2c1_tr_queue+5)
  1350  0013F6  1825               	xorwf	_i2c1_object+1,w,c
  1351  0013F8  A4D8               	btfss	status,2,c
  1352  0013FA  D004               	goto	l1565
  1353                           
  1354                           ;i2c1.c: 659: {
  1355                           ;i2c1.c: 661: i2c1_object.pTrTail = i2c1_tr_queue;
  1356  0013FC  0E3A               	movlw	low _i2c1_tr_queue
  1357  0013FE  6E24               	movwf	_i2c1_object,c
  1358  001400  0E00               	movlw	high _i2c1_tr_queue
  1359  001402  6E25               	movwf	_i2c1_object+1,c
  1360  001404                     l1565:
  1361                           
  1362                           ;i2c1.c: 662: }
  1363                           ;i2c1.c: 666: i2c1_object.trStatus.s.empty = 0;
  1364  001404  9228               	bcf	_i2c1_object+4,1,c
  1365                           
  1366                           ;i2c1.c: 669: if (i2c1_object.pTrHead == i2c1_object.pTrTail)
  1367  001406  5024               	movf	_i2c1_object,w,c
  1368  001408  1826               	xorwf	_i2c1_object+2,w,c
  1369  00140A  E10C               	bnz	l1571
  1370  00140C  5025               	movf	_i2c1_object+1,w,c
  1371  00140E  1827               	xorwf	_i2c1_object+3,w,c
  1372  001410  A4D8               	btfss	status,2,c
  1373  001412  D008               	goto	l1571
  1374                           
  1375                           ;i2c1.c: 670: {
  1376                           ;i2c1.c: 672: i2c1_object.trStatus.s.full = 1;
  1377  001414  8028               	bsf	_i2c1_object+4,0,c
  1378                           
  1379                           ;i2c1.c: 673: }
  1380                           ;i2c1.c: 675: }
  1381  001416  D006               	goto	l1571
  1382  001418                     l1569:
  1383                           
  1384                           ;i2c1.c: 676: else
  1385                           ;i2c1.c: 677: {
  1386                           ;i2c1.c: 678: *pflag = I2C1_MESSAGE_FAIL;
  1387  001418  C016  FFD9         	movff	I2C1_MasterTRBInsert@pflag,fsr2l
  1388  00141C  C017  FFDA         	movff	I2C1_MasterTRBInsert@pflag+1,fsr2h
  1389  001420  0E01               	movlw	1
  1390  001422  6EDF               	movwf	indf2,c
  1391  001424                     l1571:
  1392                           
  1393                           ;i2c1.c: 679: }
  1394                           ;i2c1.c: 682: if (*pflag == I2C1_MESSAGE_PENDING)
  1395  001424  C016  FFD9         	movff	I2C1_MasterTRBInsert@pflag,fsr2l
  1396  001428  C017  FFDA         	movff	I2C1_MasterTRBInsert@pflag+1,fsr2h
  1397  00142C  0E02               	movlw	2
  1398  00142E  18DE               	xorwf	postinc2,w,c
  1399  001430  A4D8               	btfss	status,2,c
  1400  001432  0012               	return	
  1401  001434                     l1575:
  1402  001434  5034               	movf	_i2c1_state,w,c
  1403  001436  A4D8               	btfss	status,2,c
  1404  001438  D7FD               	goto	l1575
  1405                           
  1406                           ;i2c1.c: 685: {
  1407                           ;i2c1.c: 688: PIR1bits.SSP1IF = 1;
  1408  00143A  869E               	bsf	3998,3,c	;volatile
  1409  00143C  0012               	return	
  1410  00143E                     __end_of_I2C1_MasterTRBInsert:
  1411                           	opt stack 0
  1412                           tblptru	equ	0xFF8
  1413                           tblptrh	equ	0xFF7
  1414                           tblptrl	equ	0xFF6
  1415                           tablat	equ	0xFF5
  1416                           prodh	equ	0xFF4
  1417                           prodl	equ	0xFF3
  1418                           intcon2	equ	0xFF1
  1419                           postinc0	equ	0xFEE
  1420                           wreg	equ	0xFE8
  1421                           postdec1	equ	0xFE5
  1422                           plusw1	equ	0xFE3
  1423                           fsr1l	equ	0xFE1
  1424                           indf2	equ	0xFDF
  1425                           postinc2	equ	0xFDE
  1426                           postdec2	equ	0xFDD
  1427                           plusw2	equ	0xFDB
  1428                           fsr2h	equ	0xFDA
  1429                           fsr2l	equ	0xFD9
  1430                           status	equ	0xFD8
  1431                           
  1432 ;; *************** function _INTERRUPT_InterruptManager *****************
  1433 ;; Defined at:
  1434 ;;		line 57 in file "mcc_generated_files/interrupt_manager.c"
  1435 ;; Parameters:    Size  Location     Type
  1436 ;;		None
  1437 ;; Auto vars:     Size  Location     Type
  1438 ;;		None
  1439 ;; Return value:  Size  Location     Type
  1440 ;;                  1    wreg      void 
  1441 ;; Registers used:
  1442 ;;		wreg, fsr2l, fsr2h, status,2, status,0, cstack
  1443 ;; Tracked objects:
  1444 ;;		On entry : 0/0
  1445 ;;		On exit  : 0/0
  1446 ;;		Unchanged: 0/0
  1447 ;; Data sizes:     COMRAM   BANK0   BANK1   BANK2   BANK3   BANK4   BANK5   BANK6   BANK7
  1448 ;;      Params:         0       0       0       0       0       0       0       0       0
  1449 ;;      Locals:         0       0       0       0       0       0       0       0       0
  1450 ;;      Temps:         14       0       0       0       0       0       0       0       0
  1451 ;;      Totals:        14       0       0       0       0       0       0       0       0
  1452 ;;Total ram usage:       14 bytes
  1453 ;; Hardware stack levels used:    1
  1454 ;; Hardware stack levels required when called:    2
  1455 ;; This function calls:
  1456 ;;		_I2C1_BusCollisionISR
  1457 ;;		_I2C1_ISR
  1458 ;; This function is called by:
  1459 ;;		Interrupt level 2
  1460 ;; This function uses a non-reentrant model
  1461 ;;
  1462                           
  1463                           	psect	intcode
  1464  001008                     __pintcode:
  1465                           	opt stack 0
  1466  001008                     _INTERRUPT_InterruptManager:
  1467                           	opt stack 26
  1468                           
  1469                           ;incstack = 0
  1470  001008  8241               	bsf	btemp,1,c	;set compiler interrupt flag (level 2)
  1471  00100A  CFFA F006          	movff	pclath,??_INTERRUPT_InterruptManager
  1472  00100E  CFFB F007          	movff	pclatu,??_INTERRUPT_InterruptManager+1
  1473  001012  CFE9 F008          	movff	fsr0l,??_INTERRUPT_InterruptManager+2
  1474  001016  CFEA F009          	movff	fsr0h,??_INTERRUPT_InterruptManager+3
  1475  00101A  CFE1 F00A          	movff	fsr1l,??_INTERRUPT_InterruptManager+4
  1476  00101E  CFE2 F00B          	movff	fsr1h,??_INTERRUPT_InterruptManager+5
  1477  001022  CFD9 F00C          	movff	fsr2l,??_INTERRUPT_InterruptManager+6
  1478  001026  CFDA F00D          	movff	fsr2h,??_INTERRUPT_InterruptManager+7
  1479  00102A  CFF3 F00E          	movff	prodl,??_INTERRUPT_InterruptManager+8
  1480  00102E  CFF4 F00F          	movff	prodh,??_INTERRUPT_InterruptManager+9
  1481  001032  CFF6 F010          	movff	tblptrl,??_INTERRUPT_InterruptManager+10
  1482  001036  CFF7 F011          	movff	tblptrh,??_INTERRUPT_InterruptManager+11
  1483  00103A  CFF8 F012          	movff	tblptru,??_INTERRUPT_InterruptManager+12
  1484  00103E  CFF5 F013          	movff	tablat,??_INTERRUPT_InterruptManager+13
  1485                           
  1486                           ;interrupt_manager.c: 60: if(INTCONbits.PEIE == 1 && PIE2bits.BCL1IE == 1 && PIR2bits.BC
      +                          L1IF == 1)
  1487  001042  BCF2               	btfsc	intcon,6,c	;volatile
  1488  001044  A6A0               	btfss	4000,3,c	;volatile
  1489  001046  D005               	goto	i2l24
  1490  001048  A6A1               	btfss	4001,3,c	;volatile
  1491  00104A  D003               	goto	i2l24
  1492                           
  1493                           ;interrupt_manager.c: 61: {
  1494                           ;interrupt_manager.c: 62: I2C1_BusCollisionISR();
  1495  00104C  EC0A  F00B         	call	_I2C1_BusCollisionISR	;wreg free
  1496                           
  1497                           ;interrupt_manager.c: 63: }
  1498  001050  D006               	goto	i2l28
  1499  001052                     i2l24:
  1500                           
  1501                           ;interrupt_manager.c: 64: else if(INTCONbits.PEIE == 1 && PIE1bits.SSP1IE == 1 && PIR1bi
      +                          ts.SSP1IF == 1)
  1502  001052  BCF2               	btfsc	intcon,6,c	;volatile
  1503  001054  A69D               	btfss	3997,3,c	;volatile
  1504  001056  D003               	goto	i2l28
  1505  001058  B69E               	btfsc	3998,3,c	;volatile
  1506                           
  1507                           ;interrupt_manager.c: 65: {
  1508                           ;interrupt_manager.c: 66: I2C1_ISR();
  1509  00105A  EC4F  F008         	call	_I2C1_ISR	;wreg free
  1510  00105E                     i2l28:
  1511  00105E  C013  FFF5         	movff	??_INTERRUPT_InterruptManager+13,tablat
  1512  001062  C012  FFF8         	movff	??_INTERRUPT_InterruptManager+12,tblptru
  1513  001066  C011  FFF7         	movff	??_INTERRUPT_InterruptManager+11,tblptrh
  1514  00106A  C010  FFF6         	movff	??_INTERRUPT_InterruptManager+10,tblptrl
  1515  00106E  C00F  FFF4         	movff	??_INTERRUPT_InterruptManager+9,prodh
  1516  001072  C00E  FFF3         	movff	??_INTERRUPT_InterruptManager+8,prodl
  1517  001076  C00D  FFDA         	movff	??_INTERRUPT_InterruptManager+7,fsr2h
  1518  00107A  C00C  FFD9         	movff	??_INTERRUPT_InterruptManager+6,fsr2l
  1519  00107E  C00B  FFE2         	movff	??_INTERRUPT_InterruptManager+5,fsr1h
  1520  001082  C00A  FFE1         	movff	??_INTERRUPT_InterruptManager+4,fsr1l
  1521  001086  C009  FFEA         	movff	??_INTERRUPT_InterruptManager+3,fsr0h
  1522  00108A  C008  FFE9         	movff	??_INTERRUPT_InterruptManager+2,fsr0l
  1523  00108E  C007  FFFB         	movff	??_INTERRUPT_InterruptManager+1,pclatu
  1524  001092  C006  FFFA         	movff	??_INTERRUPT_InterruptManager,pclath
  1525  001096  9241               	bcf	btemp,1,c	;clear compiler interrupt flag (level 2)
  1526  001098  0011               	retfie		f
  1527  00109A                     __end_of_INTERRUPT_InterruptManager:
  1528                           	opt stack 0
  1529                           pclatu	equ	0xFFB
  1530                           pclath	equ	0xFFA
  1531                           tblptru	equ	0xFF8
  1532                           tblptrh	equ	0xFF7
  1533                           tblptrl	equ	0xFF6
  1534                           tablat	equ	0xFF5
  1535                           prodh	equ	0xFF4
  1536                           prodl	equ	0xFF3
  1537                           intcon	equ	0xFF2
  1538                           intcon2	equ	0xFF1
  1539                           postinc0	equ	0xFEE
  1540                           fsr0h	equ	0xFEA
  1541                           fsr0l	equ	0xFE9
  1542                           wreg	equ	0xFE8
  1543                           postdec1	equ	0xFE5
  1544                           plusw1	equ	0xFE3
  1545                           fsr1h	equ	0xFE2
  1546                           fsr1l	equ	0xFE1
  1547                           indf2	equ	0xFDF
  1548                           postinc2	equ	0xFDE
  1549                           postdec2	equ	0xFDD
  1550                           plusw2	equ	0xFDB
  1551                           fsr2h	equ	0xFDA
  1552                           fsr2l	equ	0xFD9
  1553                           status	equ	0xFD8
  1554                           
  1555 ;; *************** function _I2C1_ISR *****************
  1556 ;; Defined at:
  1557 ;;		line 233 in file "mcc_generated_files/i2c1.c"
  1558 ;; Parameters:    Size  Location     Type
  1559 ;;		None
  1560 ;; Auto vars:     Size  Location     Type
  1561 ;;		None
  1562 ;; Return value:  Size  Location     Type
  1563 ;;                  1    wreg      void 
  1564 ;; Registers used:
  1565 ;;		wreg, fsr2l, fsr2h, status,2, status,0, cstack
  1566 ;; Tracked objects:
  1567 ;;		On entry : 0/0
  1568 ;;		On exit  : 0/0
  1569 ;;		Unchanged: 0/0
  1570 ;; Data sizes:     COMRAM   BANK0   BANK1   BANK2   BANK3   BANK4   BANK5   BANK6   BANK7
  1571 ;;      Params:         0       0       0       0       0       0       0       0       0
  1572 ;;      Locals:         0       0       0       0       0       0       0       0       0
  1573 ;;      Temps:          2       0       0       0       0       0       0       0       0
  1574 ;;      Totals:         2       0       0       0       0       0       0       0       0
  1575 ;;Total ram usage:        2 bytes
  1576 ;; Hardware stack levels used:    1
  1577 ;; Hardware stack levels required when called:    1
  1578 ;; This function calls:
  1579 ;;		_I2C1_FunctionComplete
  1580 ;;		_I2C1_Stop
  1581 ;; This function is called by:
  1582 ;;		_INTERRUPT_InterruptManager
  1583 ;; This function uses a non-reentrant model
  1584 ;;
  1585                           
  1586                           	psect	text10
  1587  00109E                     __ptext10:
  1588                           	opt stack 0
  1589  00109E                     _I2C1_ISR:
  1590                           	opt stack 26
  1591                           
  1592                           ;i2c1.c: 236: static uint8_t *pi2c_buf_ptr;
  1593                           ;i2c1.c: 237: static uint16_t i2c_address = 0;
  1594                           ;i2c1.c: 238: static uint8_t i2c_bytes_left = 0;
  1595                           ;i2c1.c: 239: static uint8_t i2c_10bit_address_restart = 0;
  1596                           ;i2c1.c: 241: PIR1bits.SSP1IF = 0;
  1597                           
  1598                           ;incstack = 0
  1599  00109E  969E               	bcf	3998,3,c	;volatile
  1600                           
  1601                           ;i2c1.c: 245: if(SSP1CON1bits.WCOL)
  1602  0010A0  AEC6               	btfss	4038,7,c	;volatile
  1603  0010A2  D0F9               	goto	i2l1709
  1604                           
  1605                           ;i2c1.c: 246: {
  1606                           ;i2c1.c: 248: SSP1CON1bits.WCOL = 0;
  1607  0010A4  9EC6               	bcf	4038,7,c	;volatile
  1608                           
  1609                           ;i2c1.c: 249: i2c1_state = S_MASTER_IDLE;
  1610  0010A6  0E00               	movlw	0
  1611  0010A8  6E34               	movwf	_i2c1_state,c
  1612                           
  1613                           ;i2c1.c: 250: *(p_i2c1_current->pTrFlag) = I2C1_MESSAGE_FAIL;
  1614  0010AA  EE20 F003          	lfsr	2,3
  1615  0010AE  502D               	movf	_p_i2c1_current,w,c
  1616  0010B0  26D9               	addwf	fsr2l,f,c
  1617  0010B2  502E               	movf	_p_i2c1_current+1,w,c
  1618  0010B4  22DA               	addwfc	fsr2h,f,c
  1619  0010B6  CFDE F004          	movff	postinc2,??_I2C1_ISR
  1620  0010BA  CFDD F005          	movff	postdec2,??_I2C1_ISR+1
  1621  0010BE  C004  FFD9         	movff	??_I2C1_ISR,fsr2l
  1622  0010C2  C005  FFDA         	movff	??_I2C1_ISR+1,fsr2h
  1623  0010C6  0E01               	movlw	1
  1624  0010C8  6EDF               	movwf	indf2,c
  1625                           
  1626                           ;i2c1.c: 253: p_i2c1_current = (0);
  1627  0010CA  0E00               	movlw	0
  1628  0010CC  6E2D               	movwf	_p_i2c1_current,c
  1629  0010CE  0E00               	movlw	0
  1630  0010D0  6E2E               	movwf	_p_i2c1_current+1,c
  1631                           
  1632                           ;i2c1.c: 255: return;
  1633  0010D2  0012               	return	
  1634  0010D4                     i2l150:
  1635                           
  1636                           ;i2c1.c: 263: if(i2c1_object.trStatus.s.empty != 1)
  1637  0010D4  B228               	btfsc	_i2c1_object+4,1,c
  1638  0010D6  0012               	return	
  1639                           
  1640                           ;i2c1.c: 264: {
  1641                           ;i2c1.c: 266: p_i2c1_current = i2c1_object.pTrHead;
  1642  0010D8  C026  F02D         	movff	_i2c1_object+2,_p_i2c1_current
  1643  0010DC  C027  F02E         	movff	_i2c1_object+3,_p_i2c1_current+1
  1644                           
  1645                           ;i2c1.c: 267: i2c1_trb_count = i2c1_object.pTrHead->count;
  1646  0010E0  C026  FFD9         	movff	_i2c1_object+2,fsr2l
  1647  0010E4  C027  FFDA         	movff	_i2c1_object+3,fsr2h
  1648  0010E8  50DF               	movf	indf2,w,c
  1649  0010EA  6E33               	movwf	_i2c1_trb_count,c
  1650                           
  1651                           ;i2c1.c: 268: p_i2c1_trb_current = i2c1_object.pTrHead->ptrb_list;
  1652  0010EC  EE20 F001          	lfsr	2,1
  1653  0010F0  5026               	movf	_i2c1_object+2,w,c
  1654  0010F2  26D9               	addwf	fsr2l,f,c
  1655  0010F4  5027               	movf	_i2c1_object+3,w,c
  1656  0010F6  22DA               	addwfc	fsr2h,f,c
  1657  0010F8  CFDE F02F          	movff	postinc2,_p_i2c1_trb_current
  1658  0010FC  CFDD F030          	movff	postdec2,_p_i2c1_trb_current+1
  1659                           
  1660                           ;i2c1.c: 270: i2c1_object.pTrHead++;
  1661  001100  0E05               	movlw	5
  1662  001102  2626               	addwf	_i2c1_object+2,f,c
  1663  001104  0E00               	movlw	0
  1664  001106  2227               	addwfc	_i2c1_object+3,f,c
  1665                           
  1666                           ;i2c1.c: 273: if(i2c1_object.pTrHead == (i2c1_tr_queue + 1))
  1667  001108  0E3F               	movlw	low (_i2c1_tr_queue+5)
  1668  00110A  1826               	xorwf	_i2c1_object+2,w,c
  1669  00110C  E108               	bnz	i2l1601
  1670  00110E  0E00               	movlw	high (_i2c1_tr_queue+5)
  1671  001110  1827               	xorwf	_i2c1_object+3,w,c
  1672  001112  A4D8               	btfss	status,2,c
  1673  001114  D004               	goto	i2l1601
  1674                           
  1675                           ;i2c1.c: 274: {
  1676                           ;i2c1.c: 276: i2c1_object.pTrHead = i2c1_tr_queue;
  1677  001116  0E3A               	movlw	low _i2c1_tr_queue
  1678  001118  6E26               	movwf	_i2c1_object+2,c
  1679  00111A  0E00               	movlw	high _i2c1_tr_queue
  1680  00111C  6E27               	movwf	_i2c1_object+3,c
  1681  00111E                     i2l1601:
  1682                           
  1683                           ;i2c1.c: 277: }
  1684                           ;i2c1.c: 281: i2c1_object.trStatus.s.full = 0;
  1685  00111E  9028               	bcf	_i2c1_object+4,0,c
  1686                           
  1687                           ;i2c1.c: 284: if(i2c1_object.pTrHead == i2c1_object.pTrTail)
  1688  001120  5024               	movf	_i2c1_object,w,c
  1689  001122  1826               	xorwf	_i2c1_object+2,w,c
  1690  001124  E104               	bnz	i2l153
  1691  001126  5025               	movf	_i2c1_object+1,w,c
  1692  001128  1827               	xorwf	_i2c1_object+3,w,c
  1693  00112A  B4D8               	btfsc	status,2,c
  1694                           
  1695                           ;i2c1.c: 285: {
  1696                           ;i2c1.c: 287: i2c1_object.trStatus.s.empty = 1;
  1697  00112C  8228               	bsf	_i2c1_object+4,1,c
  1698  00112E                     i2l153:
  1699                           
  1700                           ;i2c1.c: 288: }
  1701                           ;i2c1.c: 291: SSP1CON2bits.SEN = 1;
  1702  00112E  80C5               	bsf	4037,0,c	;volatile
  1703                           
  1704                           ;i2c1.c: 294: i2c1_state = S_MASTER_SEND_ADDR;
  1705  001130  0E02               	movlw	2
  1706  001132  6E34               	movwf	_i2c1_state,c
  1707                           
  1708                           ;i2c1.c: 295: }
  1709                           ;i2c1.c: 297: break;
  1710  001134  0012               	return	
  1711  001136                     i2l155:
  1712                           
  1713                           ;i2c1.c: 304: SSP1CON2bits.RSEN = 1;
  1714  001136  82C5               	bsf	4037,1,c	;volatile
  1715                           
  1716                           ;i2c1.c: 307: i2c1_state = S_MASTER_SEND_ADDR;
  1717  001138  0E02               	movlw	2
  1718  00113A  6E34               	movwf	_i2c1_state,c
  1719                           
  1720                           ;i2c1.c: 309: break;
  1721  00113C  0012               	return	
  1722  00113E                     i2l156:
  1723                           
  1724                           ;i2c1.c: 313: if(SSP1CON2bits.ACKSTAT)
  1725  00113E  ACC5               	btfss	4037,6,c	;volatile
  1726  001140  D005               	goto	i2l1613
  1727                           
  1728                           ;i2c1.c: 314: {
  1729                           ;i2c1.c: 315: i2c1_object.i2cErrors++;
  1730  001142  2A2A               	incf	_i2c1_object+6,f,c
  1731                           
  1732                           ;i2c1.c: 316: I2C1_Stop(I2C1_MESSAGE_ADDRESS_NO_ACK);
  1733  001144  0E04               	movlw	4
  1734  001146  ECAB  F00A         	call	_I2C1_Stop
  1735                           
  1736                           ;i2c1.c: 317: }
  1737  00114A  0012               	return	
  1738  00114C                     i2l1613:
  1739                           
  1740                           ;i2c1.c: 318: else
  1741                           ;i2c1.c: 319: {
  1742                           ;i2c1.c: 321: SSP1BUF = (i2c_address >> 1) & 0x00FF;
  1743  00114C  90D8               	bcf	status,0,c
  1744  00114E  3040               	rrcf	I2C1_ISR@i2c_address+1,w,c
  1745  001150  6E05               	movwf	(??_I2C1_ISR+1)& (0+255),c
  1746  001152  303F               	rrcf	I2C1_ISR@i2c_address,w,c
  1747  001154  6E04               	movwf	??_I2C1_ISR& (0+255),c
  1748  001156  5004               	movf	??_I2C1_ISR,w,c
  1749  001158  6EC9               	movwf	4041,c	;volatile
  1750                           
  1751                           ;i2c1.c: 324: if(i2c_address & 0x01)
  1752  00115A  A03F               	btfss	I2C1_ISR@i2c_address,0,c
  1753  00115C  D003               	goto	i2l1619
  1754                           
  1755                           ;i2c1.c: 325: {
  1756                           ;i2c1.c: 328: i2c1_state = S_MASTER_10BIT_RESTART;
  1757  00115E  0E0B               	movlw	11
  1758  001160  6E34               	movwf	_i2c1_state,c
  1759                           
  1760                           ;i2c1.c: 329: }
  1761  001162  0012               	return	
  1762  001164                     i2l1619:
  1763                           
  1764                           ;i2c1.c: 330: else
  1765                           ;i2c1.c: 331: {
  1766                           ;i2c1.c: 333: i2c1_state = S_MASTER_SEND_DATA;
  1767  001164  0E03               	movlw	3
  1768  001166  6E34               	movwf	_i2c1_state,c
  1769                           
  1770                           ;i2c1.c: 334: }
  1771                           ;i2c1.c: 335: }
  1772                           ;i2c1.c: 337: break;
  1773  001168  0012               	return	
  1774  00116A                     i2l161:
  1775                           
  1776                           ;i2c1.c: 341: if(SSP1CON2bits.ACKSTAT)
  1777  00116A  ACC5               	btfss	4037,6,c	;volatile
  1778  00116C  D005               	goto	i2l162
  1779                           
  1780                           ;i2c1.c: 342: {
  1781                           ;i2c1.c: 343: i2c1_object.i2cErrors++;
  1782  00116E  2A2A               	incf	_i2c1_object+6,f,c
  1783                           
  1784                           ;i2c1.c: 344: I2C1_Stop(I2C1_MESSAGE_ADDRESS_NO_ACK);
  1785  001170  0E04               	movlw	4
  1786  001172  ECAB  F00A         	call	_I2C1_Stop
  1787                           
  1788                           ;i2c1.c: 345: }
  1789  001176  0012               	return	
  1790  001178                     i2l162:
  1791                           
  1792                           ;i2c1.c: 346: else
  1793                           ;i2c1.c: 347: {
  1794                           ;i2c1.c: 350: SSP1CON2bits.RSEN = 1;
  1795  001178  82C5               	bsf	4037,1,c	;volatile
  1796                           
  1797                           ;i2c1.c: 354: i2c_address = 0x00F0 | ((i2c_address >> 8) & 0x0006);
  1798  00117A  C03F  F004         	movff	I2C1_ISR@i2c_address,??_I2C1_ISR
  1799  00117E  C040  F005         	movff	I2C1_ISR@i2c_address+1,??_I2C1_ISR+1
  1800  001182  C005  F004         	movff	??_I2C1_ISR+1,??_I2C1_ISR
  1801  001186  6A05               	clrf	??_I2C1_ISR+1,c
  1802  001188  0E06               	movlw	6
  1803  00118A  1604               	andwf	??_I2C1_ISR,f,c
  1804  00118C  0E00               	movlw	0
  1805  00118E  1605               	andwf	??_I2C1_ISR+1,f,c
  1806  001190  0EF0               	movlw	240
  1807  001192  1004               	iorwf	??_I2C1_ISR,w,c
  1808  001194  6E3F               	movwf	I2C1_ISR@i2c_address,c
  1809  001196  5005               	movf	??_I2C1_ISR+1,w,c
  1810  001198  6E40               	movwf	I2C1_ISR@i2c_address+1,c
  1811                           
  1812                           ;i2c1.c: 357: i2c_address |= 0x0001;
  1813  00119A  803F               	bsf	I2C1_ISR@i2c_address,0,c
  1814                           
  1815                           ;i2c1.c: 360: i2c_10bit_address_restart = 1;
  1816  00119C  0E01               	movlw	1
  1817  00119E  6E31               	movwf	I2C1_ISR@i2c_10bit_address_restart,c
  1818                           
  1819                           ;i2c1.c: 363: i2c1_state = S_MASTER_SEND_ADDR;
  1820  0011A0  0E02               	movlw	2
  1821  0011A2  6E34               	movwf	_i2c1_state,c
  1822                           
  1823                           ;i2c1.c: 364: }
  1824                           ;i2c1.c: 366: break;
  1825  0011A4  0012               	return	
  1826  0011A6                     i2l1633:
  1827                           
  1828                           ;i2c1.c: 381: if(i2c_10bit_address_restart != 1)
  1829  0011A6  0431               	decf	I2C1_ISR@i2c_10bit_address_restart,w,c
  1830  0011A8  B4D8               	btfsc	status,2,c
  1831  0011AA  D01A               	goto	i2l166
  1832                           
  1833                           ;i2c1.c: 382: {
  1834                           ;i2c1.c: 384: i2c_address = p_i2c1_trb_current->address;
  1835  0011AC  C02F  FFD9         	movff	_p_i2c1_trb_current,fsr2l
  1836  0011B0  C030  FFDA         	movff	_p_i2c1_trb_current+1,fsr2h
  1837  0011B4  CFDE F03F          	movff	postinc2,I2C1_ISR@i2c_address
  1838  0011B8  CFDD F040          	movff	postdec2,I2C1_ISR@i2c_address+1
  1839                           
  1840                           ;i2c1.c: 385: pi2c_buf_ptr = p_i2c1_trb_current->pbuffer;
  1841  0011BC  EE20 F003          	lfsr	2,3
  1842  0011C0  502F               	movf	_p_i2c1_trb_current,w,c
  1843  0011C2  26D9               	addwf	fsr2l,f,c
  1844  0011C4  5030               	movf	_p_i2c1_trb_current+1,w,c
  1845  0011C6  22DA               	addwfc	fsr2h,f,c
  1846  0011C8  CFDE F02B          	movff	postinc2,I2C1_ISR@pi2c_buf_ptr
  1847  0011CC  CFDD F02C          	movff	postdec2,I2C1_ISR@pi2c_buf_ptr+1
  1848                           
  1849                           ;i2c1.c: 386: i2c_bytes_left = p_i2c1_trb_current->length;
  1850  0011D0  EE20 F002          	lfsr	2,2
  1851  0011D4  502F               	movf	_p_i2c1_trb_current,w,c
  1852  0011D6  26D9               	addwf	fsr2l,f,c
  1853  0011D8  5030               	movf	_p_i2c1_trb_current+1,w,c
  1854  0011DA  22DA               	addwfc	fsr2h,f,c
  1855  0011DC  50DF               	movf	indf2,w,c
  1856  0011DE  6E32               	movwf	I2C1_ISR@i2c_bytes_left,c
  1857  0011E0                     i2l166:
  1858                           
  1859                           ;i2c1.c: 409: else
  1860                           ;i2c1.c: 410: {
  1861                           ;i2c1.c: 412: SSP1BUF = i2c_address;
  1862  0011E0  C03F  FFC9         	movff	I2C1_ISR@i2c_address,4041	;volatile
  1863                           
  1864                           ;i2c1.c: 413: if(i2c_address & 0x01)
  1865  0011E4  A03F               	btfss	I2C1_ISR@i2c_address,0,c
  1866  0011E6  D003               	goto	i2l1653
  1867                           
  1868                           ;i2c1.c: 414: {
  1869                           ;i2c1.c: 416: i2c1_state = S_MASTER_ACK_ADDR;
  1870  0011E8  0E05               	movlw	5
  1871  0011EA  6E34               	movwf	_i2c1_state,c
  1872                           
  1873                           ;i2c1.c: 417: }
  1874  0011EC  0012               	return	
  1875  0011EE                     i2l1653:
  1876                           
  1877                           ;i2c1.c: 418: else
  1878                           ;i2c1.c: 419: {
  1879                           ;i2c1.c: 421: i2c1_state = S_MASTER_SEND_DATA;
  1880  0011EE  0E03               	movlw	3
  1881  0011F0  6E34               	movwf	_i2c1_state,c
  1882                           
  1883                           ;i2c1.c: 422: }
  1884                           ;i2c1.c: 423: }
  1885                           ;i2c1.c: 424: break;
  1886  0011F2  0012               	return	
  1887  0011F4                     i2l172:
  1888                           
  1889                           ;i2c1.c: 429: if(SSP1CON2bits.ACKSTAT)
  1890  0011F4  ACC5               	btfss	4037,6,c	;volatile
  1891  0011F6  D006               	goto	i2l1661
  1892                           
  1893                           ;i2c1.c: 430: {
  1894                           ;i2c1.c: 432: i2c1_object.i2cErrors++;
  1895  0011F8  2A2A               	incf	_i2c1_object+6,f,c
  1896                           
  1897                           ;i2c1.c: 435: SSP1CON2bits.ACKSTAT = 0;
  1898  0011FA  9CC5               	bcf	4037,6,c	;volatile
  1899                           
  1900                           ;i2c1.c: 438: I2C1_Stop(I2C1_DATA_NO_ACK);
  1901  0011FC  0E05               	movlw	5
  1902  0011FE  ECAB  F00A         	call	_I2C1_Stop
  1903                           
  1904                           ;i2c1.c: 440: }
  1905  001202  0012               	return	
  1906  001204                     i2l1661:
  1907                           
  1908                           ;i2c1.c: 441: else
  1909                           ;i2c1.c: 442: {
  1910                           ;i2c1.c: 444: if(i2c_bytes_left-- == 0U)
  1911  001204  0632               	decf	I2C1_ISR@i2c_bytes_left,f,c
  1912  001206  2832               	incf	I2C1_ISR@i2c_bytes_left,w,c
  1913  001208  A4D8               	btfss	status,2,c
  1914  00120A  D00E               	goto	i2l1671
  1915                           
  1916                           ;i2c1.c: 445: {
  1917                           ;i2c1.c: 449: p_i2c1_trb_current++;
  1918  00120C  0E05               	movlw	5
  1919  00120E  262F               	addwf	_p_i2c1_trb_current,f,c
  1920  001210  0E00               	movlw	0
  1921  001212  2230               	addwfc	_p_i2c1_trb_current+1,f,c
  1922                           
  1923                           ;i2c1.c: 452: if(--i2c1_trb_count == 0)
  1924  001214  2E33               	decfsz	_i2c1_trb_count,f,c
  1925  001216  D004               	goto	i2l176
  1926                           
  1927                           ;i2c1.c: 453: {
  1928                           ;i2c1.c: 454: I2C1_Stop(I2C1_MESSAGE_COMPLETE);
  1929  001218  0E00               	movlw	0
  1930  00121A  ECAB  F00A         	call	_I2C1_Stop
  1931                           
  1932                           ;i2c1.c: 455: }
  1933  00121E  0012               	return	
  1934  001220                     i2l176:
  1935                           
  1936                           ;i2c1.c: 456: else
  1937                           ;i2c1.c: 457: {
  1938                           ;i2c1.c: 464: SSP1CON2bits.RSEN = 1;
  1939  001220  82C5               	bsf	4037,1,c	;volatile
  1940                           
  1941                           ;i2c1.c: 467: i2c1_state = S_MASTER_SEND_ADDR;
  1942  001222  0E02               	movlw	2
  1943  001224  6E34               	movwf	_i2c1_state,c
  1944                           
  1945                           ;i2c1.c: 469: }
  1946                           ;i2c1.c: 470: }
  1947  001226  0012               	return	
  1948  001228                     i2l1671:
  1949                           
  1950                           ;i2c1.c: 471: else
  1951                           ;i2c1.c: 472: {
  1952                           ;i2c1.c: 474: SSP1BUF = *pi2c_buf_ptr++;
  1953  001228  C02B  FFD9         	movff	I2C1_ISR@pi2c_buf_ptr,fsr2l
  1954  00122C  C02C  FFDA         	movff	I2C1_ISR@pi2c_buf_ptr+1,fsr2h
  1955  001230  50DF               	movf	indf2,w,c
  1956  001232  6EC9               	movwf	4041,c	;volatile
  1957  001234  4A2B               	infsnz	I2C1_ISR@pi2c_buf_ptr,f,c
  1958  001236  2A2C               	incf	I2C1_ISR@pi2c_buf_ptr+1,f,c
  1959                           
  1960                           ;i2c1.c: 475: }
  1961                           ;i2c1.c: 476: }
  1962                           ;i2c1.c: 477: break;
  1963  001238  0012               	return	
  1964  00123A                     i2l179:
  1965                           
  1966                           ;i2c1.c: 482: if(SSP1CON2bits.ACKSTAT)
  1967  00123A  ACC5               	btfss	4037,6,c	;volatile
  1968  00123C  D006               	goto	i2l180
  1969                           
  1970                           ;i2c1.c: 483: {
  1971                           ;i2c1.c: 486: i2c1_object.i2cErrors++;
  1972  00123E  2A2A               	incf	_i2c1_object+6,f,c
  1973                           
  1974                           ;i2c1.c: 489: I2C1_Stop(I2C1_MESSAGE_ADDRESS_NO_ACK);
  1975  001240  0E04               	movlw	4
  1976  001242  ECAB  F00A         	call	_I2C1_Stop
  1977                           
  1978                           ;i2c1.c: 492: SSP1CON2bits.ACKSTAT = 0;
  1979  001246  9CC5               	bcf	4037,6,c	;volatile
  1980                           
  1981                           ;i2c1.c: 493: }
  1982  001248  0012               	return	
  1983  00124A                     i2l180:
  1984                           
  1985                           ;i2c1.c: 494: else
  1986                           ;i2c1.c: 495: {
  1987                           ;i2c1.c: 496: SSP1CON2bits.RCEN = 1;
  1988  00124A  86C5               	bsf	4037,3,c	;volatile
  1989                           
  1990                           ;i2c1.c: 497: i2c1_state = S_MASTER_ACK_RCV_DATA;
  1991  00124C  0E08               	movlw	8
  1992  00124E  6E34               	movwf	_i2c1_state,c
  1993                           
  1994                           ;i2c1.c: 498: }
  1995                           ;i2c1.c: 499: break;
  1996  001250  0012               	return	
  1997  001252                     i2l1683:
  1998                           
  1999                           ;i2c1.c: 506: i2c1_state = S_MASTER_ACK_RCV_DATA;
  2000  001252  0E08               	movlw	8
  2001  001254  6E34               	movwf	_i2c1_state,c
  2002                           
  2003                           ;i2c1.c: 509: SSP1CON2bits.RCEN = 1;
  2004  001256  86C5               	bsf	4037,3,c	;volatile
  2005                           
  2006                           ;i2c1.c: 511: break;
  2007  001258  0012               	return	
  2008  00125A                     i2l1687:
  2009                           
  2010                           ;i2c1.c: 516: *pi2c_buf_ptr++ = SSP1BUF;
  2011  00125A  C02B  FFD9         	movff	I2C1_ISR@pi2c_buf_ptr,fsr2l
  2012  00125E  C02C  FFDA         	movff	I2C1_ISR@pi2c_buf_ptr+1,fsr2h
  2013  001262  CFC9 FFDF          	movff	4041,indf2	;volatile
  2014  001266  4A2B               	infsnz	I2C1_ISR@pi2c_buf_ptr,f,c
  2015  001268  2A2C               	incf	I2C1_ISR@pi2c_buf_ptr+1,f,c
  2016                           
  2017                           ;i2c1.c: 519: if(--i2c_bytes_left)
  2018  00126A  0E01               	movlw	1
  2019  00126C  5E32               	subwf	I2C1_ISR@i2c_bytes_left,f,c
  2020  00126E  B4D8               	btfsc	status,2,c
  2021  001270  D004               	goto	i2l184
  2022                           
  2023                           ;i2c1.c: 520: {
  2024                           ;i2c1.c: 526: SSP1CON2bits.ACKDT = 0;
  2025  001272  9AC5               	bcf	4037,5,c	;volatile
  2026                           
  2027                           ;i2c1.c: 529: i2c1_state = S_MASTER_RCV_DATA;
  2028  001274  0E06               	movlw	6
  2029  001276  6E34               	movwf	_i2c1_state,c
  2030                           
  2031                           ;i2c1.c: 530: }
  2032  001278  D003               	goto	i2l1699
  2033  00127A                     i2l184:
  2034                           
  2035                           ;i2c1.c: 531: else
  2036                           ;i2c1.c: 532: {
  2037                           ;i2c1.c: 536: SSP1CON2bits.ACKDT = 1;
  2038  00127A  8AC5               	bsf	4037,5,c	;volatile
  2039                           
  2040                           ;i2c1.c: 538: I2C1_FunctionComplete();
  2041  00127C  ECE1  F00A         	call	_I2C1_FunctionComplete	;wreg free
  2042  001280                     i2l1699:
  2043                           
  2044                           ;i2c1.c: 539: }
  2045                           ;i2c1.c: 542: SSP1CON2bits.ACKEN = 1;
  2046  001280  88C5               	bsf	4037,4,c	;volatile
  2047                           
  2048                           ;i2c1.c: 543: break;
  2049  001282  0012               	return	
  2050  001284                     i2l1701:
  2051                           
  2052                           ;i2c1.c: 546: case S_MASTER_SEND_STOP:
  2053                           ;i2c1.c: 549: I2C1_Stop(I2C1_MESSAGE_COMPLETE);
  2054  001284  0E00               	movlw	0
  2055  001286  ECAB  F00A         	call	_I2C1_Stop
  2056                           
  2057                           ;i2c1.c: 550: break;
  2058  00128A  0012               	return	
  2059  00128C                     i2l1703:
  2060                           
  2061                           ;i2c1.c: 556: i2c1_object.i2cErrors++;
  2062  00128C  2A2A               	incf	_i2c1_object+6,f,c
  2063                           
  2064                           ;i2c1.c: 557: I2C1_Stop(I2C1_LOST_STATE);
  2065  00128E  0E06               	movlw	6
  2066  001290  ECAB  F00A         	call	_I2C1_Stop
  2067                           
  2068                           ;i2c1.c: 560: }
  2069                           
  2070                           ;i2c1.c: 558: break;
  2071  001294  0012               	return	
  2072  001296                     i2l1709:
  2073  001296  5034               	movf	_i2c1_state,w,c
  2074                           
  2075                           ; Switch size 1, requested type "space"
  2076                           ; Number of cases is 11, Range of values is 0 to 11
  2077                           ; switch strategies available:
  2078                           ; Name         Instructions Cycles
  2079                           ; simple_byte           34    18 (average)
  2080                           ;	Chosen strategy is simple_byte
  2081  001298  0A00               	xorlw	0	; case 0
  2082  00129A  B4D8               	btfsc	status,2,c
  2083  00129C  D71B               	goto	i2l150
  2084  00129E  0A01               	xorlw	1	; case 1
  2085  0012A0  B4D8               	btfsc	status,2,c
  2086  0012A2  D749               	goto	i2l155
  2087  0012A4  0A03               	xorlw	3	; case 2
  2088  0012A6  B4D8               	btfsc	status,2,c
  2089  0012A8  D77E               	goto	i2l1633
  2090  0012AA  0A01               	xorlw	1	; case 3
  2091  0012AC  B4D8               	btfsc	status,2,c
  2092  0012AE  D7A2               	goto	i2l172
  2093  0012B0  0A07               	xorlw	7	; case 4
  2094  0012B2  B4D8               	btfsc	status,2,c
  2095  0012B4  D7E7               	goto	i2l1701
  2096  0012B6  0A01               	xorlw	1	; case 5
  2097  0012B8  B4D8               	btfsc	status,2,c
  2098  0012BA  D7BF               	goto	i2l179
  2099  0012BC  0A03               	xorlw	3	; case 6
  2100  0012BE  B4D8               	btfsc	status,2,c
  2101  0012C0  D7C8               	goto	i2l1683
  2102  0012C2  0A01               	xorlw	1	; case 7
  2103  0012C4  B4D8               	btfsc	status,2,c
  2104  0012C6  D7DE               	goto	i2l1701
  2105  0012C8  0A0F               	xorlw	15	; case 8
  2106  0012CA  B4D8               	btfsc	status,2,c
  2107  0012CC  D7C6               	goto	i2l1687
  2108  0012CE  0A02               	xorlw	2	; case 10
  2109  0012D0  B4D8               	btfsc	status,2,c
  2110  0012D2  D735               	goto	i2l156
  2111  0012D4  0A01               	xorlw	1	; case 11
  2112  0012D6  B4D8               	btfsc	status,2,c
  2113  0012D8  D748               	goto	i2l161
  2114  0012DA  D7D8               	goto	i2l1703
  2115  0012DC                     __end_of_I2C1_ISR:
  2116                           	opt stack 0
  2117                           pclatu	equ	0xFFB
  2118                           pclath	equ	0xFFA
  2119                           tblptru	equ	0xFF8
  2120                           tblptrh	equ	0xFF7
  2121                           tblptrl	equ	0xFF6
  2122                           tablat	equ	0xFF5
  2123                           prodh	equ	0xFF4
  2124                           prodl	equ	0xFF3
  2125                           intcon	equ	0xFF2
  2126                           intcon2	equ	0xFF1
  2127                           postinc0	equ	0xFEE
  2128                           fsr0h	equ	0xFEA
  2129                           fsr0l	equ	0xFE9
  2130                           wreg	equ	0xFE8
  2131                           postdec1	equ	0xFE5
  2132                           plusw1	equ	0xFE3
  2133                           fsr1h	equ	0xFE2
  2134                           fsr1l	equ	0xFE1
  2135                           indf2	equ	0xFDF
  2136                           postinc2	equ	0xFDE
  2137                           postdec2	equ	0xFDD
  2138                           plusw2	equ	0xFDB
  2139                           fsr2h	equ	0xFDA
  2140                           fsr2l	equ	0xFD9
  2141                           status	equ	0xFD8
  2142                           
  2143 ;; *************** function _I2C1_Stop *****************
  2144 ;; Defined at:
  2145 ;;		line 581 in file "mcc_generated_files/i2c1.c"
  2146 ;; Parameters:    Size  Location     Type
  2147 ;;  completion_c    1    wreg     enum E5751
  2148 ;; Auto vars:     Size  Location     Type
  2149 ;;  completion_c    1    2[COMRAM] enum E5751
  2150 ;; Return value:  Size  Location     Type
  2151 ;;                  1    wreg      void 
  2152 ;; Registers used:
  2153 ;;		wreg, fsr2l, fsr2h, status,2, status,0
  2154 ;; Tracked objects:
  2155 ;;		On entry : 0/0
  2156 ;;		On exit  : 0/0
  2157 ;;		Unchanged: 0/0
  2158 ;; Data sizes:     COMRAM   BANK0   BANK1   BANK2   BANK3   BANK4   BANK5   BANK6   BANK7
  2159 ;;      Params:         0       0       0       0       0       0       0       0       0
  2160 ;;      Locals:         1       0       0       0       0       0       0       0       0
  2161 ;;      Temps:          2       0       0       0       0       0       0       0       0
  2162 ;;      Totals:         3       0       0       0       0       0       0       0       0
  2163 ;;Total ram usage:        3 bytes
  2164 ;; Hardware stack levels used:    1
  2165 ;; This function calls:
  2166 ;;		Nothing
  2167 ;; This function is called by:
  2168 ;;		_I2C1_ISR
  2169 ;; This function uses a non-reentrant model
  2170 ;;
  2171                           
  2172                           	psect	text11
  2173  001556                     __ptext11:
  2174                           	opt stack 0
  2175  001556                     _I2C1_Stop:
  2176                           	opt stack 26
  2177                           
  2178                           ;incstack = 0
  2179                           ;I2C1_Stop@completion_code stored from wreg
  2180  001556  6E03               	movwf	I2C1_Stop@completion_code,c
  2181                           
  2182                           ;i2c1.c: 584: SSP1CON2bits.PEN = 1;
  2183  001558  84C5               	bsf	4037,2,c	;volatile
  2184                           
  2185                           ;i2c1.c: 587: if (p_i2c1_current->pTrFlag != (0))
  2186  00155A  EE20 F003          	lfsr	2,3
  2187  00155E  502D               	movf	_p_i2c1_current,w,c
  2188  001560  26D9               	addwf	fsr2l,f,c
  2189  001562  502E               	movf	_p_i2c1_current+1,w,c
  2190  001564  22DA               	addwfc	fsr2h,f,c
  2191  001566  50DE               	movf	postinc2,w,c
  2192  001568  10DE               	iorwf	postinc2,w,c
  2193  00156A  B4D8               	btfsc	status,2,c
  2194  00156C  D010               	goto	i2l1533
  2195                           
  2196                           ;i2c1.c: 588: {
  2197                           ;i2c1.c: 590: *(p_i2c1_current->pTrFlag) = completion_code;
  2198  00156E  EE20 F003          	lfsr	2,3
  2199  001572  502D               	movf	_p_i2c1_current,w,c
  2200  001574  26D9               	addwf	fsr2l,f,c
  2201  001576  502E               	movf	_p_i2c1_current+1,w,c
  2202  001578  22DA               	addwfc	fsr2h,f,c
  2203  00157A  CFDE F001          	movff	postinc2,??_I2C1_Stop
  2204  00157E  CFDD F002          	movff	postdec2,??_I2C1_Stop+1
  2205  001582  C001  FFD9         	movff	??_I2C1_Stop,fsr2l
  2206  001586  C002  FFDA         	movff	??_I2C1_Stop+1,fsr2h
  2207  00158A  C003  FFDF         	movff	I2C1_Stop@completion_code,indf2
  2208  00158E                     i2l1533:
  2209                           
  2210                           ;i2c1.c: 591: }
  2211                           ;i2c1.c: 594: i2c1_state = S_MASTER_IDLE;
  2212  00158E  0E00               	movlw	0
  2213  001590  6E34               	movwf	_i2c1_state,c
  2214  001592  0012               	return		;funcret
  2215  001594                     __end_of_I2C1_Stop:
  2216                           	opt stack 0
  2217                           pclatu	equ	0xFFB
  2218                           pclath	equ	0xFFA
  2219                           tblptru	equ	0xFF8
  2220                           tblptrh	equ	0xFF7
  2221                           tblptrl	equ	0xFF6
  2222                           tablat	equ	0xFF5
  2223                           prodh	equ	0xFF4
  2224                           prodl	equ	0xFF3
  2225                           intcon	equ	0xFF2
  2226                           intcon2	equ	0xFF1
  2227                           postinc0	equ	0xFEE
  2228                           fsr0h	equ	0xFEA
  2229                           fsr0l	equ	0xFE9
  2230                           wreg	equ	0xFE8
  2231                           postdec1	equ	0xFE5
  2232                           plusw1	equ	0xFE3
  2233                           fsr1h	equ	0xFE2
  2234                           fsr1l	equ	0xFE1
  2235                           indf2	equ	0xFDF
  2236                           postinc2	equ	0xFDE
  2237                           postdec2	equ	0xFDD
  2238                           plusw2	equ	0xFDB
  2239                           fsr2h	equ	0xFDA
  2240                           fsr2l	equ	0xFD9
  2241                           status	equ	0xFD8
  2242                           
  2243 ;; *************** function _I2C1_FunctionComplete *****************
  2244 ;; Defined at:
  2245 ;;		line 563 in file "mcc_generated_files/i2c1.c"
  2246 ;; Parameters:    Size  Location     Type
  2247 ;;		None
  2248 ;; Auto vars:     Size  Location     Type
  2249 ;;		None
  2250 ;; Return value:  Size  Location     Type
  2251 ;;                  1    wreg      void 
  2252 ;; Registers used:
  2253 ;;		wreg, status,2, status,0
  2254 ;; Tracked objects:
  2255 ;;		On entry : 0/0
  2256 ;;		On exit  : 0/0
  2257 ;;		Unchanged: 0/0
  2258 ;; Data sizes:     COMRAM   BANK0   BANK1   BANK2   BANK3   BANK4   BANK5   BANK6   BANK7
  2259 ;;      Params:         0       0       0       0       0       0       0       0       0
  2260 ;;      Locals:         0       0       0       0       0       0       0       0       0
  2261 ;;      Temps:          0       0       0       0       0       0       0       0       0
  2262 ;;      Totals:         0       0       0       0       0       0       0       0       0
  2263 ;;Total ram usage:        0 bytes
  2264 ;; Hardware stack levels used:    1
  2265 ;; This function calls:
  2266 ;;		Nothing
  2267 ;; This function is called by:
  2268 ;;		_I2C1_ISR
  2269 ;; This function uses a non-reentrant model
  2270 ;;
  2271                           
  2272                           	psect	text12
  2273  0015C2                     __ptext12:
  2274                           	opt stack 0
  2275  0015C2                     _I2C1_FunctionComplete:
  2276                           	opt stack 26
  2277                           
  2278                           ;i2c1.c: 567: p_i2c1_trb_current++;
  2279                           
  2280                           ;incstack = 0
  2281  0015C2  0E05               	movlw	5
  2282  0015C4  262F               	addwf	_p_i2c1_trb_current,f,c
  2283  0015C6  0E00               	movlw	0
  2284  0015C8  2230               	addwfc	_p_i2c1_trb_current+1,f,c
  2285                           
  2286                           ;i2c1.c: 570: if(--i2c1_trb_count == 0)
  2287  0015CA  2E33               	decfsz	_i2c1_trb_count,f,c
  2288  0015CC  D003               	goto	i2l1541
  2289                           
  2290                           ;i2c1.c: 571: {
  2291                           ;i2c1.c: 572: i2c1_state = S_MASTER_SEND_STOP;
  2292  0015CE  0E04               	movlw	4
  2293  0015D0  6E34               	movwf	_i2c1_state,c
  2294                           
  2295                           ;i2c1.c: 573: }
  2296  0015D2  0012               	return	
  2297  0015D4                     i2l1541:
  2298                           
  2299                           ;i2c1.c: 574: else
  2300                           ;i2c1.c: 575: {
  2301                           ;i2c1.c: 576: i2c1_state = S_MASTER_RESTART;
  2302  0015D4  0E01               	movlw	1
  2303  0015D6  6E34               	movwf	_i2c1_state,c
  2304  0015D8  0012               	return	
  2305  0015DA                     __end_of_I2C1_FunctionComplete:
  2306                           	opt stack 0
  2307                           pclatu	equ	0xFFB
  2308                           pclath	equ	0xFFA
  2309                           tblptru	equ	0xFF8
  2310                           tblptrh	equ	0xFF7
  2311                           tblptrl	equ	0xFF6
  2312                           tablat	equ	0xFF5
  2313                           prodh	equ	0xFF4
  2314                           prodl	equ	0xFF3
  2315                           intcon	equ	0xFF2
  2316                           intcon2	equ	0xFF1
  2317                           postinc0	equ	0xFEE
  2318                           fsr0h	equ	0xFEA
  2319                           fsr0l	equ	0xFE9
  2320                           wreg	equ	0xFE8
  2321                           postdec1	equ	0xFE5
  2322                           plusw1	equ	0xFE3
  2323                           fsr1h	equ	0xFE2
  2324                           fsr1l	equ	0xFE1
  2325                           indf2	equ	0xFDF
  2326                           postinc2	equ	0xFDE
  2327                           postdec2	equ	0xFDD
  2328                           plusw2	equ	0xFDB
  2329                           fsr2h	equ	0xFDA
  2330                           fsr2l	equ	0xFD9
  2331                           status	equ	0xFD8
  2332                           
  2333 ;; *************** function _I2C1_BusCollisionISR *****************
  2334 ;; Defined at:
  2335 ;;		line 728 in file "mcc_generated_files/i2c1.c"
  2336 ;; Parameters:    Size  Location     Type
  2337 ;;		None
  2338 ;; Auto vars:     Size  Location     Type
  2339 ;;		None
  2340 ;; Return value:  Size  Location     Type
  2341 ;;                  1    wreg      void 
  2342 ;; Registers used:
  2343 ;;		None
  2344 ;; Tracked objects:
  2345 ;;		On entry : 0/0
  2346 ;;		On exit  : 0/0
  2347 ;;		Unchanged: 0/0
  2348 ;; Data sizes:     COMRAM   BANK0   BANK1   BANK2   BANK3   BANK4   BANK5   BANK6   BANK7
  2349 ;;      Params:         0       0       0       0       0       0       0       0       0
  2350 ;;      Locals:         0       0       0       0       0       0       0       0       0
  2351 ;;      Temps:          0       0       0       0       0       0       0       0       0
  2352 ;;      Totals:         0       0       0       0       0       0       0       0       0
  2353 ;;Total ram usage:        0 bytes
  2354 ;; Hardware stack levels used:    1
  2355 ;; This function calls:
  2356 ;;		Nothing
  2357 ;; This function is called by:
  2358 ;;		_INTERRUPT_InterruptManager
  2359 ;; This function uses a non-reentrant model
  2360 ;;
  2361                           
  2362                           	psect	text13
  2363  001614                     __ptext13:
  2364                           	opt stack 0
  2365  001614                     _I2C1_BusCollisionISR:
  2366                           	opt stack 27
  2367                           
  2368                           ;incstack = 0
  2369  001614  0012               	return		;funcret
  2370  001616                     __end_of_I2C1_BusCollisionISR:
  2371                           	opt stack 0
  2372  0000                     pclatu	equ	0xFFB
  2373                           pclath	equ	0xFFA
  2374                           tblptru	equ	0xFF8
  2375                           tblptrh	equ	0xFF7
  2376                           tblptrl	equ	0xFF6
  2377                           tablat	equ	0xFF5
  2378                           prodh	equ	0xFF4
  2379                           prodl	equ	0xFF3
  2380                           intcon	equ	0xFF2
  2381                           intcon2	equ	0xFF1
  2382                           postinc0	equ	0xFEE
  2383                           fsr0h	equ	0xFEA
  2384                           fsr0l	equ	0xFE9
  2385                           wreg	equ	0xFE8
  2386                           postdec1	equ	0xFE5
  2387                           plusw1	equ	0xFE3
  2388                           fsr1h	equ	0xFE2
  2389                           fsr1l	equ	0xFE1
  2390                           indf2	equ	0xFDF
  2391                           postinc2	equ	0xFDE
  2392                           postdec2	equ	0xFDD
  2393                           plusw2	equ	0xFDB
  2394                           fsr2h	equ	0xFDA
  2395                           fsr2l	equ	0xFD9
  2396                           status	equ	0xFD8
  2397                           pclatu	equ	0xFFB
  2398                           pclath	equ	0xFFA
  2399                           tblptru	equ	0xFF8
  2400                           tblptrh	equ	0xFF7
  2401                           tblptrl	equ	0xFF6
  2402                           tablat	equ	0xFF5
  2403                           prodh	equ	0xFF4
  2404                           prodl	equ	0xFF3
  2405                           intcon	equ	0xFF2
  2406                           intcon2	equ	0xFF1
  2407                           postinc0	equ	0xFEE
  2408                           fsr0h	equ	0xFEA
  2409                           fsr0l	equ	0xFE9
  2410                           wreg	equ	0xFE8
  2411                           postdec1	equ	0xFE5
  2412                           plusw1	equ	0xFE3
  2413                           fsr1h	equ	0xFE2
  2414                           fsr1l	equ	0xFE1
  2415                           indf2	equ	0xFDF
  2416                           postinc2	equ	0xFDE
  2417                           postdec2	equ	0xFDD
  2418                           plusw2	equ	0xFDB
  2419                           fsr2h	equ	0xFDA
  2420                           fsr2l	equ	0xFD9
  2421                           status	equ	0xFD8
  2422                           
  2423                           	psect	rparam
  2424  0000                     pclatu	equ	0xFFB
  2425                           pclath	equ	0xFFA
  2426                           tblptru	equ	0xFF8
  2427                           tblptrh	equ	0xFF7
  2428                           tblptrl	equ	0xFF6
  2429                           tablat	equ	0xFF5
  2430                           prodh	equ	0xFF4
  2431                           prodl	equ	0xFF3
  2432                           intcon	equ	0xFF2
  2433                           intcon2	equ	0xFF1
  2434                           postinc0	equ	0xFEE
  2435                           fsr0h	equ	0xFEA
  2436                           fsr0l	equ	0xFE9
  2437                           wreg	equ	0xFE8
  2438                           postdec1	equ	0xFE5
  2439                           plusw1	equ	0xFE3
  2440                           fsr1h	equ	0xFE2
  2441                           fsr1l	equ	0xFE1
  2442                           indf2	equ	0xFDF
  2443                           postinc2	equ	0xFDE
  2444                           postdec2	equ	0xFDD
  2445                           plusw2	equ	0xFDB
  2446                           fsr2h	equ	0xFDA
  2447                           fsr2l	equ	0xFD9
  2448                           status	equ	0xFD8
  2449                           
  2450                           	psect	temp
  2451  000041                     btemp:
  2452                           	opt stack 0
  2453  000041                     	ds	1
  2454  0000                     int$flags	set	btemp
  2455                           pclatu	equ	0xFFB
  2456                           pclath	equ	0xFFA
  2457                           tblptru	equ	0xFF8
  2458                           tblptrh	equ	0xFF7
  2459                           tblptrl	equ	0xFF6
  2460                           tablat	equ	0xFF5
  2461                           prodh	equ	0xFF4
  2462                           prodl	equ	0xFF3
  2463                           intcon	equ	0xFF2
  2464                           intcon2	equ	0xFF1
  2465                           postinc0	equ	0xFEE
  2466                           fsr0h	equ	0xFEA
  2467                           fsr0l	equ	0xFE9
  2468                           wreg	equ	0xFE8
  2469                           postdec1	equ	0xFE5
  2470                           plusw1	equ	0xFE3
  2471                           fsr1h	equ	0xFE2
  2472                           fsr1l	equ	0xFE1
  2473                           indf2	equ	0xFDF
  2474                           postinc2	equ	0xFDE
  2475                           postdec2	equ	0xFDD
  2476                           plusw2	equ	0xFDB
  2477                           fsr2h	equ	0xFDA
  2478                           fsr2l	equ	0xFD9
  2479                           status	equ	0xFD8


Data Sizes:
    Strings     0
    Constant    0
    Data        18
    BSS         34
    Persistent  0
    Stack       0

Auto Spaces:
    Space          Size  Autos    Used
    COMRAM           94     35      64
    BANK0           160     26      49
    BANK1           256      0       0
    BANK2           256      0       0
    BANK3           256      0       0
    BANK4           256      0       0
    BANK5           256      0       0
    BANK6           256      0       0
    BANK7           256      0       0

Pointer List with Targets:

    i2c1_tr_queue.ptrb_list.pbuffer	PTR unsigned char  size(2) Largest target is 0
		 -> main@writeBuffer(BANK0[1]), main@status(BANK0[1]), 

    i2c1_tr_queue.pTrFlag	PTR enum E5751 size(2) Largest target is 0
		 -> main@writeBuffer(BANK0[1]), main@status(BANK0[1]), 

    i2c1_tr_queue.ptrb_list	PTR struct . size(2) Largest target is 0
		 -> I2C1_MasterRead@trBlock(BANK0[5]), I2C1_MasterWrite@trBlock(COMRAM[5]), 

    main@pD	PTR unsigned char  size(2) Largest target is 18
		 -> main@LCD_commands(BANK0[18]), 

    I2C1_MasterWriteTRBBuild@pdata	PTR unsigned char  size(2) Largest target is 1
		 -> main@writeBuffer(BANK0[1]), 

    I2C1_MasterWriteTRBBuild@ptrb.pbuffer	PTR unsigned char  size(2) Largest target is 1
		 -> main@writeBuffer(BANK0[1]), main@status(BANK0[1]), 

    I2C1_MasterWriteTRBBuild@ptrb	PTR struct . size(2) Largest target is 6
		 -> I2C1_MasterWrite@trBlock(COMRAM[5]), 

    I2C1_MasterReadTRBBuild@ptrb.pbuffer	PTR unsigned char  size(2) Largest target is 1
		 -> main@writeBuffer(BANK0[1]), main@status(BANK0[1]), 

    i2c1_object.pTrTail.ptrb_list.pbuffer	PTR unsigned char  size(2) Largest target is 1
		 -> main@writeBuffer(BANK0[1]), main@status(BANK0[1]), 

    i2c1_object.pTrTail.pTrFlag	PTR enum E5751 size(2) Largest target is 1
		 -> main@writeBuffer(BANK0[1]), main@status(BANK0[1]), 

    i2c1_object.pTrTail.ptrb_list	PTR struct . size(2) Largest target is 6
		 -> I2C1_MasterRead@trBlock(BANK0[5]), I2C1_MasterWrite@trBlock(COMRAM[5]), 

    I2C1_MasterTRBInsert@ptrb_list	PTR struct . size(2) Largest target is 6
		 -> I2C1_MasterRead@trBlock(BANK0[5]), I2C1_MasterWrite@trBlock(COMRAM[5]), 

    I2C1_MasterTRBInsert@pflag	PTR enum E5751 size(2) Largest target is 1
		 -> main@status(BANK0[1]), 

    F5863.pbuffer	PTR unsigned char  size(2) Largest target is 1
		 -> main@writeBuffer(BANK0[1]), main@status(BANK0[1]), 

    I2C1_MasterWrite@pflag	PTR enum E5751 size(2) Largest target is 1
		 -> main@status(BANK0[1]), 

    I2C1_MasterWrite@pdata	PTR unsigned char  size(2) Largest target is 1
		 -> main@writeBuffer(BANK0[1]), 

    F5858.pbuffer	PTR unsigned char  size(2) Largest target is 1
		 -> main@writeBuffer(BANK0[1]), main@status(BANK0[1]), 

    I2C1_ISR@pi2c_buf_ptr	PTR unsigned char  size(2) Largest target is 1
		 -> main@writeBuffer(BANK0[1]), main@status(BANK0[1]), NULL(NULL[0]), 

    p_i2c1_trb_current.pbuffer	PTR unsigned char  size(2) Largest target is 1
		 -> main@writeBuffer(BANK0[1]), main@status(BANK0[1]), 

    p_i2c1_trb_current	PTR struct . size(2) Largest target is 6
		 -> I2C1_MasterRead@trBlock(BANK0[5]), I2C1_MasterWrite@trBlock(COMRAM[5]), NULL(NULL[0]), 

    i2c1_object.pTrHead.pTrFlag	PTR enum E5751 size(2) Largest target is 1
		 -> main@writeBuffer(BANK0[1]), main@status(BANK0[1]), 

    i2c1_object.pTrHead.ptrb_list	PTR struct . size(2) Largest target is 6
		 -> I2C1_MasterRead@trBlock(BANK0[5]), I2C1_MasterWrite@trBlock(COMRAM[5]), 

    S449$pbuffer	PTR unsigned char  size(2) Largest target is 1
		 -> main@writeBuffer(BANK0[1]), main@status(BANK0[1]), 

    p_i2c1_current.pbuffer	PTR unsigned char  size(2) Largest target is 1
		 -> main@writeBuffer(BANK0[1]), main@status(BANK0[1]), 

    S461$pTrFlag	PTR enum E5751 size(2) Largest target is 1
		 -> main@writeBuffer(BANK0[1]), main@status(BANK0[1]), 

    p_i2c1_current.pTrFlag	PTR enum E5751 size(2) Largest target is 1
		 -> main@writeBuffer(BANK0[1]), main@status(BANK0[1]), 

    S461$ptrb_list	PTR struct . size(2) Largest target is 6
		 -> I2C1_MasterRead@trBlock(BANK0[5]), I2C1_MasterWrite@trBlock(COMRAM[5]), 

    p_i2c1_current.ptrb_list	PTR struct . size(2) Largest target is 6
		 -> I2C1_MasterRead@trBlock(BANK0[5]), I2C1_MasterWrite@trBlock(COMRAM[5]), 

    p_i2c1_current	PTR struct . size(2) Largest target is 7
		 -> i2c1_tr_queue(COMRAM[5]), NULL(NULL[0]), 

    S472$pTrHead	PTR struct . size(2) Largest target is 7
		 -> i2c1_tr_queue(COMRAM[5]), 

    i2c1_object.pTrHead	PTR struct . size(2) Largest target is 7
		 -> i2c1_tr_queue(COMRAM[5]), 

    S472$pTrTail	PTR struct . size(2) Largest target is 7
		 -> i2c1_tr_queue(COMRAM[5]), 

    i2c1_object.pTrTail	PTR struct . size(2) Largest target is 7
		 -> i2c1_tr_queue(COMRAM[5]), 


Critical Paths under _main in COMRAM

    _main->_I2C1_MasterWrite
    _I2C1_MasterWrite->_I2C1_MasterWriteTRBBuild

Critical Paths under _INTERRUPT_InterruptManager in COMRAM

    _INTERRUPT_InterruptManager->_I2C1_ISR
    _I2C1_ISR->_I2C1_Stop

Critical Paths under _main in BANK0

    None.

Critical Paths under _INTERRUPT_InterruptManager in BANK0

    None.

Critical Paths under _main in BANK1

    None.

Critical Paths under _INTERRUPT_InterruptManager in BANK1

    None.

Critical Paths under _main in BANK2

    None.

Critical Paths under _INTERRUPT_InterruptManager in BANK2

    None.

Critical Paths under _main in BANK3

    None.

Critical Paths under _INTERRUPT_InterruptManager in BANK3

    None.

Critical Paths under _main in BANK4

    None.

Critical Paths under _INTERRUPT_InterruptManager in BANK4

    None.

Critical Paths under _main in BANK5

    None.

Critical Paths under _INTERRUPT_InterruptManager in BANK5

    None.

Critical Paths under _main in BANK6

    None.

Critical Paths under _INTERRUPT_InterruptManager in BANK6

    None.

Critical Paths under _main in BANK7

    None.

Critical Paths under _INTERRUPT_InterruptManager in BANK7

    None.

Call Graph Tables:

 ---------------------------------------------------------------------------------
 (Depth) Function   	        Calls       Base Space   Used Autos Params    Refs
 ---------------------------------------------------------------------------------
 (0) _main                                                26    26      0    2041
                                              0 BANK0     26    26      0
                   _I2C1_MasterWrite
                  _SYSTEM_Initialize
 ---------------------------------------------------------------------------------
 (1) _SYSTEM_Initialize                                    0     0      0       0
                    _I2C1_Initialize
               _INTERRUPT_Initialize
              _OSCILLATOR_Initialize
             _PIN_MANAGER_Initialize
 ---------------------------------------------------------------------------------
 (2) _PIN_MANAGER_Initialize                               0     0      0       0
 ---------------------------------------------------------------------------------
 (2) _OSCILLATOR_Initialize                                0     0      0       0
 ---------------------------------------------------------------------------------
 (2) _INTERRUPT_Initialize                                 0     0      0       0
 ---------------------------------------------------------------------------------
 (2) _I2C1_Initialize                                      0     0      0       0
 ---------------------------------------------------------------------------------
 (1) _I2C1_MasterWrite                                     7     0      7    1607
                                             28 COMRAM     7     0      7
               _I2C1_MasterTRBInsert
           _I2C1_MasterWriteTRBBuild
 ---------------------------------------------------------------------------------
 (2) _I2C1_MasterWriteTRBBuild                             9     2      7     546
                                             19 COMRAM     9     2      7
 ---------------------------------------------------------------------------------
 (2) _I2C1_MasterTRBInsert                                 6     2      4     546
                                             19 COMRAM     6     2      4
 ---------------------------------------------------------------------------------
 Estimated maximum stack depth 2
 ---------------------------------------------------------------------------------
 (Depth) Function   	        Calls       Base Space   Used Autos Params    Refs
 ---------------------------------------------------------------------------------
 (3) _INTERRUPT_InterruptManager                          14    14      0      31
                                              5 COMRAM    14    14      0
               _I2C1_BusCollisionISR
                           _I2C1_ISR
 ---------------------------------------------------------------------------------
 (4) _I2C1_ISR                                             2     2      0      31
                                              3 COMRAM     2     2      0
              _I2C1_FunctionComplete
                          _I2C1_Stop
 ---------------------------------------------------------------------------------
 (5) _I2C1_Stop                                            3     3      0      31
                                              0 COMRAM     3     3      0
 ---------------------------------------------------------------------------------
 (5) _I2C1_FunctionComplete                                0     0      0       0
 ---------------------------------------------------------------------------------
 (4) _I2C1_BusCollisionISR                                 0     0      0       0
 ---------------------------------------------------------------------------------
 Estimated maximum stack depth 5
 ---------------------------------------------------------------------------------

 Call Graph Graphs:

 _main (ROOT)
   _I2C1_MasterWrite
     _I2C1_MasterTRBInsert
     _I2C1_MasterWriteTRBBuild
   _SYSTEM_Initialize
     _I2C1_Initialize
     _INTERRUPT_Initialize
     _OSCILLATOR_Initialize
     _PIN_MANAGER_Initialize

 _INTERRUPT_InterruptManager (ROOT)
   _I2C1_BusCollisionISR
   _I2C1_ISR
     _I2C1_FunctionComplete
     _I2C1_Stop

 Address spaces:
Name               Size   Autos  Total    Cost      Usage
BIGRAM             7FF      0       0      21        0.0%
EEDATA             100      0       0       0        0.0%
BITBANK7           100      0       0      19        0.0%
BANK7              100      0       0      20        0.0%
BITBANK6           100      0       0      17        0.0%
BANK6              100      0       0      18        0.0%
BITBANK5           100      0       0      15        0.0%
BANK5              100      0       0      16        0.0%
BITBANK4           100      0       0      13        0.0%
BANK4              100      0       0      14        0.0%
BITBANK3           100      0       0      11        0.0%
BANK3              100      0       0      12        0.0%
BITBANK2           100      0       0       9        0.0%
BANK2              100      0       0      10        0.0%
BITBANK1           100      0       0       7        0.0%
BANK1              100      0       0       8        0.0%
BITBANK0            A0      0       0       4        0.0%
BANK0               A0     1A      31       5       30.6%
BITCOMRAM           5E      0       0       0        0.0%
COMRAM              5E     23      40       1       68.1%
BITSFR_1             0      0       0     200        0.0%
SFR_1                0      0       0     200        0.0%
BITSFR               0      0       0     200        0.0%
SFR                  0      0       0     200        0.0%
STACK                0      0       0       2        0.0%
NULL                 0      0       0       0        0.0%
ABS                  0      0      71       6        0.0%
DATA                 0      0      71       3        0.0%
CODE                 0      0       0       0        0.0%


Microchip Technology PIC18 Macro Assembler V1.42 build -159332390 
Symbol Table                                                                                   Sat Mar 17 21:48:49 2018

                       __CFG_CP0$OFF 000000                      main@writeBuffer 0077  
                       __CFG_CP1$OFF 000000                         __CFG_CP2$OFF 000000  
                       __CFG_CP3$OFF 000000                          __CFG_LVP$ON 000000  
                                l260 139E                         __CFG_CPB$OFF 000000  
                       __CFG_CPD$OFF 000000                                  wreg 000FE8  
                   __end_of_I2C1_ISR 12DC                                 l1571 1424  
                               l1723 147A                                 l1565 1404  
                               l1575 1434                                 l1569 1418  
                               l1763 1340                                 l1755 130E  
                               l1765 1360                                 l1775 1392  
                               l1759 1318                                 l1769 1370  
                               u1021 12EA                                 _LATA 000F89  
                               _LATB 000F8A                                 _LATC 000F8B  
                               _LATD 000F8C                                 u1097 1394  
                               _LATE 000F8D                                 i2l24 1052  
                               i2l28 105E                                 _WPUB 000F85  
                               _main 12DC                                 fsr0h 000FEA  
                               fsr1h 000FE2                                 fsr2h 000FDA  
                               fsr0l 000FE9                                 indf2 000FDF  
                               fsr1l 000FE1                                 fsr2l 000FD9  
             ??_I2C1_MasterTRBInsert 0018                                 btemp 0041  
                      __CFG_BORV$190 000000                          main@timeout 0075  
                               prodh 000FF4                                 prodl 000FF3  
                               start 109A                        __CFG_IESO$OFF 000000  
                      __CFG_MCLRE$ON 000000                         ___param_bank 000000  
     I2C1_MasterWriteTRBBuild@length 0018                           _i2c1_state 0034  
     __size_of_OSCILLATOR_Initialize 0012            I2C1_MasterTRBInsert@count 0019  
      __end_of_OSCILLATOR_Initialize 1610            I2C1_MasterTRBInsert@pflag 0016  
                              ?_main 0001                    __end_of_I2C1_Stop 1594  
                     __CFG_DEBUG$OFF 000000                                i2l150 10D4  
                              i2l161 116A                                i2l153 112E  
                              i2l162 1178                                i2l155 1136  
                              i2l180 124A                                i2l172 11F4  
                              i2l156 113E                                i2l166 11E0  
                              i2l184 127A                                i2l176 1220  
                              i2l179 123A                                _TRISA 000F92  
                              _TRISB 000F93                                _TRISC 000F94  
                              _TRISD 000F95                                _TRISE 000F96  
       __end_of_I2C1_BusCollisionISR 1616                        __CFG_WRT0$OFF 000000  
                      __CFG_WRT1$OFF 000000                        __CFG_WRT2$OFF 000000  
                      __CFG_WRT3$OFF 000000                       __CFG_EBTR0$OFF 000000  
                     __CFG_FCMEN$OFF 000000                       __CFG_EBTR1$OFF 000000  
                     __CFG_EBTR2$OFF 000000                       __CFG_EBTR3$OFF 000000  
                  ??_I2C1_Initialize 0014                        __CFG_WRTB$OFF 000000  
                      __CFG_WRTC$OFF 000000                        __CFG_WRTD$OFF 000000  
                     __CFG_EBTRB$OFF 000000                                main@i 0078  
                              pclath 000FFA                                tablat 000FF5  
                              plusw1 000FE3                                plusw2 000FDB  
                              status 000FD8                       __CFG_T3CMX$RC0 000000  
                     __CFG_ICPRT$OFF 000000                       __CFG_PBADEN$ON 000000  
    I2C1_MasterWriteTRBBuild@address 0019                      __initialization 1488  
              I2C1_MasterWrite@pdata 001D                I2C1_MasterWrite@pflag 0022  
                       __end_of_main 13A0                       __CFG_PCLKEN$ON 000000  
        ?_INTERRUPT_InterruptManager 0001                          _i2c1_object 0024  
                             ??_main 0024                        __activetblptr 000002  
                     __CFG_SDOMX$RB3 000000                      __CFG_CCP2MX$RC1 000000  
                             _ACTCON 000FB5                               _ANSELA 000F5B  
                             _ANSELB 000F5C                               _ANSELC 000F5D  
                             _ANSELD 000F5E                               _ANSELE 000F5F  
                             i2l1601 111E                               i2l1541 15D4  
                             i2l1533 158E                               i2l1701 1284  
                             i2l1613 114C                               i2l1703 128C  
                             i2l1633 11A6                               i2l1619 1164  
                             i2l1661 1204                               i2l1653 11EE  
                             i2l1709 1296                       __CFG_WDTEN$OFF 000000  
                             i2l1671 1228                               i2l1683 1252  
                             i2l1687 125A                               i2l1699 1280  
                             _OSCCON 000FD3                    ?_I2C1_MasterWrite 001D  
                     __CFG_XINST$OFF 000000                   ??_I2C1_MasterWrite 0024  
                     _p_i2c1_current 002D                       __CFG_STVREN$ON 000000  
         ??_I2C1_MasterWriteTRBBuild 001B                            ?_I2C1_ISR 0001  
                             clear_0 14BA                               main@pD 0073  
                             tblptrh 000FF7                               tblptrl 000FF6  
                             tblptru 000FF8        I2C1_MasterWriteTRBBuild@pdata 0016  
      __size_of_INTERRUPT_Initialize 0004                 __CFG_LS48MHZ$SYS48X8 000000  
                  _SYSTEM_Initialize 15EC                           __accesstop 0060  
            __end_of__initialization 14C0                   ?_SYSTEM_Initialize 0001  
                      ___rparam_used 000001                       _i2c1_trb_count 0033  
              _I2C1_FunctionComplete 15C2                 _I2C1_BusCollisionISR 1614  
                     __pcstackCOMRAM 0001                     __CFG_nPWRTEN$OFF 000000  
             I2C1_MasterWrite@length 001F                         __pidataBANK0 15DA  
                ??_SYSTEM_Initialize 0014                           ??_I2C1_ISR 0004  
          __end_of_SYSTEM_Initialize 15FE                           __pbssBANK0 008C  
              ?_I2C1_BusCollisionISR 0001                    __CFG_PLLSEL$PLL4X 000000  
                    _I2C1_Initialize 1594                              _OSCCON2 000FD2  
                          _I2C1_Stop 1556                              _OSCTUNE 000F9B  
                            _SSP1ADD 000FC8                              _SSP1BUF 000FC9  
      I2C1_MasterTRBInsert@ptrb_list 0014               ?_I2C1_FunctionComplete 0001  
                            __Hparam 0000        __size_of_I2C1_MasterTRBInsert 009E  
                            __Lparam 0000                   _p_i2c1_trb_current 002F  
                            __pcinit 1488                              __ramtop 0800  
                            __ptext0 12DC                              __ptext1 15EC  
                            __ptext2 14CE                              __ptext3 15FE  
                            __ptext4 1610                              __ptext5 1594  
                            __ptext6 143E                              __ptext7 1512  
                            __ptext8 13A0                     main@LCD_commands 0060  
              _OSCILLATOR_Initialize 15FE             ??_PIN_MANAGER_Initialize 0014  
                         ?_I2C1_Stop 0001           __size_of_SYSTEM_Initialize 0012  
               I2C1_ISR@pi2c_buf_ptr 002B                 end_of_initialization 14C0  
                      __Lmediumconst 0000               ??_I2C1_BusCollisionISR 0001  
            __end_of_I2C1_Initialize 15C2                              postdec1 000FE5  
                            postdec2 000FDD                              postinc0 000FEE  
                            postinc2 000FDE            __size_of_I2C1_MasterWrite 004A  
                  __size_of_I2C1_ISR 023E    I2C1_ISR@i2c_10bit_address_restart 0031  
            I2C1_MasterWrite@address 0020                           main@status 0079  
       __end_of_INTERRUPT_Initialize 1614              I2C1_MasterWrite@trBlock 0035  
           I2C1_Stop@completion_code 0003               ?_OSCILLATOR_Initialize 0001  
                start_initialization 1488                          ??_I2C1_Stop 0001  
    __size_of_PIN_MANAGER_Initialize 0044    __size_of_I2C1_MasterWriteTRBBuild 0044  
          ?_I2C1_MasterWriteTRBBuild 0014                      __CFG_nLPBOR$OFF 000000  
                   ?_I2C1_Initialize 0001                          __pdataBANK0 007A  
       I2C1_MasterWriteTRBBuild@ptrb 0014                          __pbssCOMRAM 0024  
                      __pcstackBANK0 0060                        _i2c1_tr_queue 003A  
            ??_I2C1_FunctionComplete 0001               _PIN_MANAGER_Initialize 14CE  
                          __pintcode 1008                             _I2C1_ISR 109E  
       ??_INTERRUPT_InterruptManager 0006                     _I2C1_MasterWrite 143E  
       __end_of_I2C1_MasterTRBInsert 143E                 _INTERRUPT_Initialize 1610  
             I2C1_MasterRead@trBlock 008C                             _PIE1bits 000F9D  
                           _PIE2bits 000FA0  __size_of_INTERRUPT_InterruptManager 0092  
                           _PIR1bits 000F9E                             _PIR2bits 000FA1  
                           _RCONbits 000FD0                     __CFG_WDTPS$32768 000000  
                          main@F5817 007A                             _SSP1CON1 000FC6  
                           _SSP1CON3 000FCB                             _SSP1STAT 000FC7  
                  __CFG_CFGPLLEN$OFF 000000                          _INTCON2bits 000FF1  
                          copy_data0 149C                ?_INTERRUPT_Initialize 0001  
                           __Hrparam 0000        __size_of_I2C1_BusCollisionISR 0002  
                           __Lrparam 0000                   __CFG_BOREN$SBORDIS 000000  
             I2C1_ISR@i2c_bytes_left 0032              ??_OSCILLATOR_Initialize 0014  
   __end_of_I2C1_MasterWriteTRBBuild 1556                  I2C1_ISR@i2c_address 003F  
                           __ptext10 109E                             __ptext11 1556  
                           __ptext12 15C2                             __ptext13 1614  
                       _SSP1CON1bits 000FC6                         _SSP1CON2bits 000FC5  
                      __size_of_main 00C4                 _I2C1_MasterTRBInsert 13A0  
                           int$flags 0041   __end_of_INTERRUPT_InterruptManager 109A  
         _INTERRUPT_InterruptManager 1008                             main@data 0072  
                         _INTCONbits 000FF2               ??_INTERRUPT_Initialize 0014  
                           intlevel2 0000              ?_PIN_MANAGER_Initialize 0001  
           __end_of_I2C1_MasterWrite 1488       __size_of_I2C1_FunctionComplete 0018  
      __end_of_I2C1_FunctionComplete 15DA                ?_I2C1_MasterTRBInsert 0014  
               __CFG_CPUDIV$NOCLKDIV 000000             __size_of_I2C1_Initialize 002E  
           _I2C1_MasterWriteTRBBuild 1512                   __CFG_FOSC$INTOSCIO 000000  
     __end_of_PIN_MANAGER_Initialize 1512                   __size_of_I2C1_Stop 003E  
