

Microchip Technology PIC18 LITE Macro Assembler V1.42 build -159332390 
                                                                                               Mon Apr 02 19:04:24 2018

Microchip Technology Omniscient Code Generator v1.42 (Free mode) build 201704130522
     1                           	processor	18F45K50
     2                           	fnconf	rparam,??,?,0
     3                           	opt	pw 120
     4                           	opt	lm
     5                           	psect	cinit,global,reloc=2,class=CODE,delta=1
     6                           	psect	cstackBANK0,global,class=BANK0,space=1,delta=1,noexec
     7                           	psect	cstackCOMRAM,global,class=COMRAM,space=1,delta=1,noexec
     8                           	psect	text0,global,reloc=2,class=CODE,delta=1
     9                           	psect	text1,global,reloc=2,class=CODE,delta=1
    10                           	psect	text2,global,reloc=2,class=CODE,delta=1
    11                           	psect	text3,global,reloc=2,class=CODE,delta=1
    12                           	psect	text4,global,reloc=2,class=CODE,delta=1,group=1
    13                           	psect	text5,global,reloc=2,class=CODE,delta=1,group=1
    14                           	psect	text6,global,reloc=2,class=CODE,delta=1,group=1
    15                           	psect	text7,global,reloc=2,class=CODE,delta=1,group=1
    16                           	psect	text8,global,reloc=2,class=CODE,delta=1,group=1
    17                           	psect	text9,global,reloc=2,class=CODE,delta=1,group=1
    18                           	psect	text10,global,reloc=2,class=CODE,delta=1
    19                           	psect	text11,global,reloc=2,class=CODE,delta=1
    20                           	psect	text12,global,reloc=2,class=CODE,delta=1
    21                           	psect	intcodelo,global,reloc=2,class=CODE,delta=1
    22                           	psect	intcode,global,reloc=2,class=CODE,delta=1
    23                           	psect	intcode_body,global,reloc=2,class=CODE,delta=1
    24                           	psect	text15,global,reloc=2,class=CODE,delta=1
    25                           	psect	text16,global,reloc=2,class=CODE,delta=1
    26                           	psect	text17,global,reloc=2,class=CODE,delta=1
    27                           	psect	text18,global,reloc=2,class=CODE,delta=1
    28                           	psect	text19,global,reloc=2,class=CODE,delta=1
    29                           	psect	text20,global,reloc=2,class=CODE,delta=1
    30                           	psect	text21,global,reloc=2,class=CODE,delta=1
    31                           	psect	text22,global,reloc=2,class=CODE,delta=1
    32                           	psect	text23,global,reloc=2,class=CODE,delta=1
    33                           	psect	intsave_regs,global,class=BIGRAM,space=1,delta=1,noexec
    34                           	psect	rparam,global,class=COMRAM,space=1,delta=1,noexec
    35                           	psect	temp,global,ovrld,common,class=COMRAM,space=1,delta=1
    36  0000                     
    37                           ; Version 1.42
    38                           ; Generated 13/04/2017 GMT
    39                           ; 
    40                           ; Copyright © 2017, Microchip Technology Inc. and its subsidiaries ("Microchip")
    41                           ; All rights reserved.
    42                           ; 
    43                           ; This software is developed by Microchip Technology Inc. and its subsidiaries ("Microch
      +                          ip").
    44                           ; 
    45                           ; Redistribution and use in source and binary forms, with or without modification, are
    46                           ; permitted provided that the following conditions are met:
    47                           ; 
    48                           ;     1. Redistributions of source code must retain the above copyright notice, this lis
      +                          t of
    49                           ;        conditions and the following disclaimer.
    50                           ; 
    51                           ;     2. Redistributions in binary form must reproduce the above copyright notice, this 
      +                          list
    52                           ;        of conditions and the following disclaimer in the documentation and/or other
    53                           ;        materials provided with the distribution.
    54                           ; 
    55                           ;     3. Microchip's name may not be used to endorse or promote products derived from th
      +                          is
    56                           ;        software without specific prior written permission.
    57                           ; 
    58                           ; THIS SOFTWARE IS PROVIDED BY MICROCHIP "AS IS" AND ANY EXPRESS OR IMPLIED WARRANTIES,
    59                           ; INCLUDING, BUT NOT LIMITED TO, THE IMPLIED WARRANTIES OF MERCHANTABILITY AND FITNESS F
      +                          OR
    60                           ; PURPOSE ARE DISCLAIMED.  IN NO EVENT SHALL MICROCHIP BE LIABLE FOR ANY DIRECT, INDIREC
      +                          T,
    61                           ; INCIDENTAL, SPECIAL, EXEMPLARY, OR CONSEQUENTIAL DAMAGES (INCLUDING BUT NOT LIMITED TO
    62                           ; PROCUREMENT OF SUBSTITUTE GOODS OR SERVICES; LOSS OF USE, DATA OR PROFITS; OR BUSINESS
    63                           ; INTERRUPTION) HOWSOEVER CAUSED AND ON ANY THEORY OF LIABILITY, WHETHER IN CONTRACT, ST
      +                          RICT
    64                           ; LIABILITY, OR TORT (INCLUDING NEGLIGENCE OR OTHERWISE) ARISING IN ANY WAY OUT OF THE U
      +                          SE OF
    65                           ; THIS SOFTWARE, EVEN IF ADVISED OF THE POSSIBILITY OF SUCH DAMAGE.
    66                           ; 
    67                           ; 
    68                           ; Code-generator required, PIC18F45K50 Definitions
    69                           ; 
    70                           ; SFR Addresses
    71  0000                     _ANSELB	set	3932
    72  0000                     _TRISB	set	3987
    73  0000                     _INTCON	set	4082
    74  0000                     _PIR2bits	set	4001
    75  0000                     _PIR2	set	4001
    76  0000                     _LATB	set	3978
    77  0000                     _PIR1bits	set	3998
    78  0000                     _PIR1	set	3998
    79  0000                     _TMR3L	set	4018
    80  0000                     _TMR3H	set	4019
    81  0000                     _T3CONbits	set	4017
    82  0000                     _T3CON	set	4017
    83  0000                     _PIE2bits	set	4000
    84  0000                     _TMR1L	set	4046
    85  0000                     _TMR1H	set	4047
    86  0000                     _T1CONbits	set	4045
    87  0000                     _T1CON	set	4045
    88  0000                     _PIE1bits	set	3997
    89  0000                     _TMR0L	set	4054
    90  0000                     _TMR0H	set	4055
    91  0000                     _T0CONbits	set	4053
    92  0000                     _T0CON	set	4053
    93  0000                     _INTCONbits	set	4082
    94                           
    95                           ; #config settings
    96                           
    97                           	psect	cinit
    98  0020B0                     __pcinit:
    99                           	opt stack 0
   100  0020B0                     start_initialization:
   101                           	opt stack 0
   102  0020B0                     __initialization:
   103                           	opt stack 0
   104  0020B0                     end_of_initialization:
   105                           	opt stack 0
   106  0020B0                     __end_of__initialization:
   107                           	opt stack 0
   108  0020B0  904B               	bcf	int$flags,0,c	;clear compiler interrupt flag (level 1)
   109  0020B2  924B               	bcf	int$flags,1,c	;clear compiler interrupt flag (level 2)
   110  0020B4  0100               	movlb	0
   111  0020B6  EF94  F00F         	goto	_main	;jump to C main() function
   112                           
   113                           	psect	cstackBANK0
   114  000060                     __pcstackBANK0:
   115                           	opt stack 0
   116  000060                     ??_low_isr:
   117                           
   118                           ; 1 bytes @ 0x0
   119  000060                     	ds	17
   120  000071                     ?___ftpack:
   121                           	opt stack 0
   122  000071                     config_TMR0@clock_source:
   123                           	opt stack 0
   124  000071                     config_TMR1@clock_source:
   125                           	opt stack 0
   126  000071                     config_TMR3@clock_source:
   127                           	opt stack 0
   128  000071                     ___ftpack@arg:
   129                           	opt stack 0
   130                           
   131                           ; 3 bytes @ 0x11
   132  000071                     	ds	1
   133  000072                     config_TMR0@check_flag_method:
   134                           	opt stack 0
   135  000072                     config_TMR1@check_flag_method:
   136                           	opt stack 0
   137  000072                     config_TMR3@check_flag_method:
   138                           	opt stack 0
   139                           
   140                           ; 1 bytes @ 0x12
   141  000072                     	ds	2
   142  000074                     ___ftpack@exp:
   143                           	opt stack 0
   144                           
   145                           ; 1 bytes @ 0x14
   146  000074                     	ds	1
   147  000075                     ___ftpack@sign:
   148                           	opt stack 0
   149                           
   150                           ; 1 bytes @ 0x15
   151  000075                     	ds	1
   152  000076                     ??___ftpack:
   153                           
   154                           ; 1 bytes @ 0x16
   155  000076                     	ds	3
   156  000079                     ?___lwtoft:
   157                           	opt stack 0
   158  000079                     ___lwtoft@c:
   159                           	opt stack 0
   160                           
   161                           ; 2 bytes @ 0x19
   162  000079                     	ds	3
   163  00007C                     ?___ftdiv:
   164                           	opt stack 0
   165  00007C                     ___ftdiv@f1:
   166                           	opt stack 0
   167                           
   168                           ; 3 bytes @ 0x1C
   169  00007C                     	ds	3
   170  00007F                     ___ftdiv@f2:
   171                           	opt stack 0
   172                           
   173                           ; 3 bytes @ 0x1F
   174  00007F                     	ds	3
   175  000082                     ??___ftdiv:
   176                           
   177                           ; 1 bytes @ 0x22
   178  000082                     	ds	3
   179  000085                     ___ftdiv@cntr:
   180                           	opt stack 0
   181                           
   182                           ; 1 bytes @ 0x25
   183  000085                     	ds	1
   184  000086                     ___ftdiv@f3:
   185                           	opt stack 0
   186                           
   187                           ; 3 bytes @ 0x26
   188  000086                     	ds	3
   189  000089                     ___ftdiv@exp:
   190                           	opt stack 0
   191                           
   192                           ; 1 bytes @ 0x29
   193  000089                     	ds	1
   194  00008A                     ___ftdiv@sign:
   195                           	opt stack 0
   196                           
   197                           ; 1 bytes @ 0x2A
   198  00008A                     	ds	1
   199  00008B                     ?___ftneg:
   200                           	opt stack 0
   201  00008B                     ___ftneg@f1:
   202                           	opt stack 0
   203                           
   204                           ; 3 bytes @ 0x2B
   205  00008B                     	ds	3
   206  00008E                     ?___ftadd:
   207                           	opt stack 0
   208  00008E                     ___ftadd@f1:
   209                           	opt stack 0
   210                           
   211                           ; 3 bytes @ 0x2E
   212  00008E                     	ds	3
   213  000091                     ___ftadd@f2:
   214                           	opt stack 0
   215                           
   216                           ; 3 bytes @ 0x31
   217  000091                     	ds	3
   218  000094                     ??___ftadd:
   219                           
   220                           ; 1 bytes @ 0x34
   221  000094                     	ds	3
   222  000097                     ___ftadd@sign:
   223                           	opt stack 0
   224                           
   225                           ; 1 bytes @ 0x37
   226  000097                     	ds	1
   227  000098                     ___ftadd@exp2:
   228                           	opt stack 0
   229                           
   230                           ; 1 bytes @ 0x38
   231  000098                     	ds	1
   232  000099                     ___ftadd@exp1:
   233                           	opt stack 0
   234                           
   235                           ; 1 bytes @ 0x39
   236  000099                     	ds	1
   237  00009A                     ?___fttol:
   238                           	opt stack 0
   239  00009A                     ___fttol@f1:
   240                           	opt stack 0
   241                           
   242                           ; 3 bytes @ 0x3A
   243  00009A                     	ds	4
   244  00009E                     ??___fttol:
   245                           
   246                           ; 1 bytes @ 0x3E
   247  00009E                     	ds	5
   248  0000A3                     ___fttol@sign1:
   249                           	opt stack 0
   250                           
   251                           ; 1 bytes @ 0x43
   252  0000A3                     	ds	1
   253  0000A4                     ___fttol@lval:
   254                           	opt stack 0
   255                           
   256                           ; 4 bytes @ 0x44
   257  0000A4                     	ds	4
   258  0000A8                     ___fttol@exp1:
   259                           	opt stack 0
   260                           
   261                           ; 1 bytes @ 0x48
   262  0000A8                     	ds	1
   263  0000A9                     start_TMR0ms@milliseconds:
   264                           	opt stack 0
   265  0000A9                     start_TMR1ms@milliseconds:
   266                           	opt stack 0
   267  0000A9                     start_TMR3ms@milliseconds:
   268                           	opt stack 0
   269                           
   270                           ; 2 bytes @ 0x49
   271  0000A9                     	ds	2
   272  0000AB                     start_TMR0ms@temp_time:
   273                           	opt stack 0
   274  0000AB                     start_TMR1ms@temp_time:
   275                           	opt stack 0
   276  0000AB                     start_TMR3ms@temp_time:
   277                           	opt stack 0
   278                           
   279                           ; 2 bytes @ 0x4B
   280  0000AB                     	ds	2
   281  0000AD                     
   282                           ; 1 bytes @ 0x4D
   283                           
   284                           	psect	cstackCOMRAM
   285  000001                     __pcstackCOMRAM:
   286                           	opt stack 0
   287  000001                     ?i2___ftpack:
   288                           	opt stack 0
   289  000001                     i2___ftpack@arg:
   290                           	opt stack 0
   291                           
   292                           ; 3 bytes @ 0x0
   293  000001                     	ds	3
   294  000004                     i2___ftpack@exp:
   295                           	opt stack 0
   296                           
   297                           ; 1 bytes @ 0x3
   298  000004                     	ds	1
   299  000005                     i2___ftpack@sign:
   300                           	opt stack 0
   301                           
   302                           ; 1 bytes @ 0x4
   303  000005                     	ds	1
   304  000006                     ??i2___ftpack:
   305                           
   306                           ; 1 bytes @ 0x5
   307  000006                     	ds	3
   308  000009                     ?i2___lwtoft:
   309                           	opt stack 0
   310  000009                     i2___lwtoft@c:
   311                           	opt stack 0
   312                           
   313                           ; 2 bytes @ 0x8
   314  000009                     	ds	3
   315  00000C                     ?i2___ftdiv:
   316                           	opt stack 0
   317  00000C                     i2___ftdiv@f1:
   318                           	opt stack 0
   319                           
   320                           ; 3 bytes @ 0xB
   321  00000C                     	ds	3
   322  00000F                     i2___ftdiv@f2:
   323                           	opt stack 0
   324                           
   325                           ; 3 bytes @ 0xE
   326  00000F                     	ds	3
   327  000012                     ??i2___ftdiv:
   328                           
   329                           ; 1 bytes @ 0x11
   330  000012                     	ds	3
   331  000015                     i2___ftdiv@cntr:
   332                           	opt stack 0
   333                           
   334                           ; 1 bytes @ 0x14
   335  000015                     	ds	1
   336  000016                     i2___ftdiv@f3:
   337                           	opt stack 0
   338                           
   339                           ; 3 bytes @ 0x15
   340  000016                     	ds	3
   341  000019                     i2___ftdiv@exp:
   342                           	opt stack 0
   343                           
   344                           ; 1 bytes @ 0x18
   345  000019                     	ds	1
   346  00001A                     i2___ftdiv@sign:
   347                           	opt stack 0
   348                           
   349                           ; 1 bytes @ 0x19
   350  00001A                     	ds	1
   351  00001B                     ?i2___ftneg:
   352                           	opt stack 0
   353  00001B                     i2___ftneg@f1:
   354                           	opt stack 0
   355                           
   356                           ; 3 bytes @ 0x1A
   357  00001B                     	ds	3
   358  00001E                     ?i2___ftadd:
   359                           	opt stack 0
   360  00001E                     i2___ftadd@f1:
   361                           	opt stack 0
   362                           
   363                           ; 3 bytes @ 0x1D
   364  00001E                     	ds	3
   365  000021                     i2___ftadd@f2:
   366                           	opt stack 0
   367                           
   368                           ; 3 bytes @ 0x20
   369  000021                     	ds	3
   370  000024                     ??i2___ftadd:
   371                           
   372                           ; 1 bytes @ 0x23
   373  000024                     	ds	3
   374  000027                     i2___ftadd@sign:
   375                           	opt stack 0
   376                           
   377                           ; 1 bytes @ 0x26
   378  000027                     	ds	1
   379  000028                     i2___ftadd@exp2:
   380                           	opt stack 0
   381                           
   382                           ; 1 bytes @ 0x27
   383  000028                     	ds	1
   384  000029                     i2___ftadd@exp1:
   385                           	opt stack 0
   386                           
   387                           ; 1 bytes @ 0x28
   388  000029                     	ds	1
   389  00002A                     ?i2___fttol:
   390                           	opt stack 0
   391  00002A                     i2___fttol@f1:
   392                           	opt stack 0
   393                           
   394                           ; 3 bytes @ 0x29
   395  00002A                     	ds	4
   396  00002E                     ??i2___fttol:
   397                           
   398                           ; 1 bytes @ 0x2D
   399  00002E                     	ds	5
   400  000033                     i2___fttol@sign1:
   401                           	opt stack 0
   402                           
   403                           ; 1 bytes @ 0x32
   404  000033                     	ds	1
   405  000034                     i2___fttol@lval:
   406                           	opt stack 0
   407                           
   408                           ; 4 bytes @ 0x33
   409  000034                     	ds	4
   410  000038                     i2___fttol@exp1:
   411                           	opt stack 0
   412                           
   413                           ; 1 bytes @ 0x37
   414  000038                     	ds	1
   415  000039                     i2start_TMR0ms@milliseconds:
   416                           	opt stack 0
   417  000039                     i2start_TMR1ms@milliseconds:
   418                           	opt stack 0
   419  000039                     i2start_TMR3ms@milliseconds:
   420                           	opt stack 0
   421                           
   422                           ; 2 bytes @ 0x38
   423  000039                     	ds	2
   424  00003B                     i2start_TMR0ms@temp_time:
   425                           	opt stack 0
   426  00003B                     i2start_TMR1ms@temp_time:
   427                           	opt stack 0
   428  00003B                     i2start_TMR3ms@temp_time:
   429                           	opt stack 0
   430                           
   431                           ; 2 bytes @ 0x3A
   432  00003B                     	ds	2
   433  00003D                     ??_high_isr:
   434                           
   435                           ; 1 bytes @ 0x3C
   436  00003D                     	ds	14
   437                           
   438 ;;
   439 ;;Main: autosize = 0, tempsize = 0, incstack = 0, save=0
   440 ;;
   441 ;; *************** function _main *****************
   442 ;; Defined at:
   443 ;;		line 44 in file "timers.c"
   444 ;; Parameters:    Size  Location     Type
   445 ;;		None
   446 ;; Auto vars:     Size  Location     Type
   447 ;;		None
   448 ;; Return value:  Size  Location     Type
   449 ;;                  1    wreg      void 
   450 ;; Registers used:
   451 ;;		wreg, status,2, status,0, cstack
   452 ;; Tracked objects:
   453 ;;		On entry : 0/0
   454 ;;		On exit  : 0/0
   455 ;;		Unchanged: 0/0
   456 ;; Data sizes:     COMRAM   BANK0   BANK1   BANK2   BANK3   BANK4   BANK5   BANK6   BANK7
   457 ;;      Params:         0       0       0       0       0       0       0       0       0
   458 ;;      Locals:         0       0       0       0       0       0       0       0       0
   459 ;;      Temps:          0       0       0       0       0       0       0       0       0
   460 ;;      Totals:         0       0       0       0       0       0       0       0       0
   461 ;;Total ram usage:        0 bytes
   462 ;; Hardware stack levels required when called:    8
   463 ;; This function calls:
   464 ;;		_config_TMR0
   465 ;;		_config_TMR1
   466 ;;		_config_TMR3
   467 ;;		_start_TMR0ms
   468 ;;		_start_TMR1ms
   469 ;;		_start_TMR3ms
   470 ;; This function is called by:
   471 ;;		Startup code after reset
   472 ;; This function uses a non-reentrant model
   473 ;;
   474                           
   475                           	psect	text0
   476  001F28                     __ptext0:
   477                           	opt stack 0
   478  001F28                     _main:
   479                           	opt stack 23
   480                           
   481                           ;timers.c: 46: ANSELB = TRISB = LATB = 0;
   482                           
   483                           ;incstack = 0
   484  001F28  0E00               	movlw	0
   485  001F2A  6E8A               	movwf	3978,c	;volatile
   486  001F2C  CF8A FF93          	movff	3978,3987	;volatile
   487  001F30  CF93 FF5C          	movff	3987,3932	;volatile
   488                           
   489                           ;timers.c: 48: INTCONbits.PEIE = 1;
   490  001F34  8CF2               	bsf	intcon,6,c	;volatile
   491                           
   492                           ;timers.c: 49: INTCONbits.GIE = 1;
   493  001F36  8EF2               	bsf	intcon,7,c	;volatile
   494                           
   495                           ;timers.c: 51: config_TMR0(1, 0);
   496  001F38  0E00               	movlw	0
   497  001F3A  0100               	movlb	0	; () banked
   498  001F3C  6F71               	movwf	config_TMR0@clock_source& (0+255),b
   499  001F3E  0E01               	movlw	1
   500  001F40  EC1F  F010         	call	_config_TMR0
   501                           
   502                           ;timers.c: 52: config_TMR1(1, 0);
   503  001F44  0E00               	movlw	0
   504  001F46  0100               	movlb	0	; () banked
   505  001F48  6F71               	movwf	config_TMR1@clock_source& (0+255),b
   506  001F4A  0E01               	movlw	1
   507  001F4C  ECF3  F00F         	call	_config_TMR1
   508                           
   509                           ;timers.c: 53: config_TMR3(1, 0);
   510  001F50  0E00               	movlw	0
   511  001F52  0100               	movlb	0	; () banked
   512  001F54  6F71               	movwf	config_TMR3@clock_source& (0+255),b
   513  001F56  0E01               	movlw	1
   514  001F58  ECDC  F00F         	call	_config_TMR3
   515                           
   516                           ;timers.c: 55: start_TMR0ms(300);
   517  001F5C  0E01               	movlw	1
   518  001F5E  0100               	movlb	0	; () banked
   519  001F60  6FAA               	movwf	(start_TMR0ms@milliseconds+1)& (0+255),b
   520  001F62  0E2C               	movlw	44
   521  001F64  6FA9               	movwf	start_TMR0ms@milliseconds& (0+255),b
   522  001F66  EC6F  F00E         	call	_start_TMR0ms	;wreg free
   523                           
   524                           ;timers.c: 56: start_TMR1ms(25);
   525  001F6A  0E00               	movlw	0
   526  001F6C  0100               	movlb	0	; () banked
   527  001F6E  6FAA               	movwf	(start_TMR1ms@milliseconds+1)& (0+255),b
   528  001F70  0E19               	movlw	25
   529  001F72  6FA9               	movwf	start_TMR1ms@milliseconds& (0+255),b
   530  001F74  EC1F  F00E         	call	_start_TMR1ms	;wreg free
   531                           
   532                           ;timers.c: 57: start_TMR3ms(100);
   533  001F78  0E00               	movlw	0
   534  001F7A  0100               	movlb	0	; () banked
   535  001F7C  6FAA               	movwf	(start_TMR3ms@milliseconds+1)& (0+255),b
   536  001F7E  0E64               	movlw	100
   537  001F80  6FA9               	movwf	start_TMR3ms@milliseconds& (0+255),b
   538  001F82  ECCF  F00D         	call	_start_TMR3ms	;wreg free
   539  001F86                     l100:
   540  001F86  D7FF               	goto	l100
   541  001F88                     __end_of_main:
   542                           	opt stack 0
   543                           intcon	equ	0xFF2
   544                           
   545 ;; *************** function _start_TMR3ms *****************
   546 ;; Defined at:
   547 ;;		line 245 in file "timers.h"
   548 ;; Parameters:    Size  Location     Type
   549 ;;  milliseconds    2   73[BANK0 ] unsigned int 
   550 ;; Auto vars:     Size  Location     Type
   551 ;;  temp_time       2   75[BANK0 ] unsigned int 
   552 ;; Return value:  Size  Location     Type
   553 ;;                  1    wreg      void 
   554 ;; Registers used:
   555 ;;		wreg, status,2, status,0, cstack
   556 ;; Tracked objects:
   557 ;;		On entry : 0/0
   558 ;;		On exit  : 0/0
   559 ;;		Unchanged: 0/0
   560 ;; Data sizes:     COMRAM   BANK0   BANK1   BANK2   BANK3   BANK4   BANK5   BANK6   BANK7
   561 ;;      Params:         0       2       0       0       0       0       0       0       0
   562 ;;      Locals:         0       2       0       0       0       0       0       0       0
   563 ;;      Temps:          0       0       0       0       0       0       0       0       0
   564 ;;      Totals:         0       4       0       0       0       0       0       0       0
   565 ;;Total ram usage:        4 bytes
   566 ;; Hardware stack levels used:    1
   567 ;; Hardware stack levels required when called:    7
   568 ;; This function calls:
   569 ;;		___ftadd
   570 ;;		___ftdiv
   571 ;;		___ftneg
   572 ;;		___fttol
   573 ;;		___lwtoft
   574 ;; This function is called by:
   575 ;;		_main
   576 ;; This function uses a non-reentrant model
   577 ;;
   578                           
   579                           	psect	text1
   580  001B9E                     __ptext1:
   581                           	opt stack 0
   582  001B9E                     _start_TMR3ms:
   583                           	opt stack 23
   584                           
   585                           ;timers.h: 246: unsigned int temp_time;
   586                           ;timers.h: 248: if (milliseconds > 130){
   587                           
   588                           ;incstack = 0
   589  001B9E  0100               	movlb	0	; () banked
   590  001BA0  51AA               	movf	(start_TMR3ms@milliseconds+1)& (0+255),w,b
   591  001BA2  E105               	bnz	u1960
   592  001BA4  0E83               	movlw	131
   593  001BA6  0100               	movlb	0	; () banked
   594  001BA8  5DA9               	subwf	start_TMR3ms@milliseconds& (0+255),w,b
   595  001BAA  A0D8               	btfss	status,0,c
   596  001BAC  D005               	goto	l1751
   597  001BAE                     u1960:
   598                           
   599                           ; BSR set to: 0
   600                           ;timers.h: 249: TMR3H = 0;
   601  001BAE  0E00               	movlw	0
   602  001BB0  6EB3               	movwf	4019,c	;volatile
   603                           
   604                           ;timers.h: 250: TMR3L = 0;
   605  001BB2  0E00               	movlw	0
   606  001BB4  6EB2               	movwf	4018,c	;volatile
   607                           
   608                           ;timers.h: 251: }
   609  001BB6  D041               	goto	l1757
   610  001BB8                     l1751:
   611                           
   612                           ; BSR set to: 0
   613                           ;timers.h: 252: else{
   614                           ;timers.h: 259: temp_time = (unsigned int)(65536 - (milliseconds / 0.002));
   615  001BB8  0E00               	movlw	0
   616  001BBA  0100               	movlb	0	; () banked
   617  001BBC  6F91               	movwf	___ftadd@f2& (0+255),b
   618  001BBE  0E80               	movlw	128
   619  001BC0  0100               	movlb	0	; () banked
   620  001BC2  6F92               	movwf	(___ftadd@f2+1)& (0+255),b
   621  001BC4  0E47               	movlw	71
   622  001BC6  0100               	movlb	0	; () banked
   623  001BC8  6F93               	movwf	(___ftadd@f2+2)& (0+255),b
   624  001BCA  0E12               	movlw	18
   625  001BCC  0100               	movlb	0	; () banked
   626  001BCE  6F7F               	movwf	___ftdiv@f2& (0+255),b
   627  001BD0  0E03               	movlw	3
   628  001BD2  0100               	movlb	0	; () banked
   629  001BD4  6F80               	movwf	(___ftdiv@f2+1)& (0+255),b
   630  001BD6  0E3B               	movlw	59
   631  001BD8  0100               	movlb	0	; () banked
   632  001BDA  6F81               	movwf	(___ftdiv@f2+2)& (0+255),b
   633  001BDC  C0A9  F079         	movff	start_TMR3ms@milliseconds,___lwtoft@c
   634  001BE0  C0AA  F07A         	movff	start_TMR3ms@milliseconds+1,___lwtoft@c+1
   635  001BE4  EC0A  F010         	call	___lwtoft	;wreg free
   636  001BE8  C079  F07C         	movff	?___lwtoft,___ftdiv@f1
   637  001BEC  C07A  F07D         	movff	?___lwtoft+1,___ftdiv@f1+1
   638  001BF0  C07B  F07E         	movff	?___lwtoft+2,___ftdiv@f1+2
   639  001BF4  EC5F  F00A         	call	___ftdiv	;wreg free
   640  001BF8  C07C  F08B         	movff	?___ftdiv,___ftneg@f1
   641  001BFC  C07D  F08C         	movff	?___ftdiv+1,___ftneg@f1+1
   642  001C00  C07E  F08D         	movff	?___ftdiv+2,___ftneg@f1+2
   643  001C04  ECC4  F00F         	call	___ftneg	;wreg free
   644  001C08  C08B  F08E         	movff	?___ftneg,___ftadd@f1
   645  001C0C  C08C  F08F         	movff	?___ftneg+1,___ftadd@f1+1
   646  001C10  C08D  F090         	movff	?___ftneg+2,___ftadd@f1+2
   647  001C14  EC55  F008         	call	___ftadd	;wreg free
   648  001C18  C08E  F09A         	movff	?___ftadd,___fttol@f1
   649  001C1C  C08F  F09B         	movff	?___ftadd+1,___fttol@f1+1
   650  001C20  C090  F09C         	movff	?___ftadd+2,___fttol@f1+2
   651  001C24  EC05  F00B         	call	___fttol	;wreg free
   652  001C28  C09A  F0AB         	movff	?___fttol,start_TMR3ms@temp_time
   653  001C2C  C09B  F0AC         	movff	?___fttol+1,start_TMR3ms@temp_time+1
   654                           
   655                           ;timers.h: 260: TMR3H = (unsigned char)(temp_time / 256);
   656  001C30  0100               	movlb	0	; () banked
   657  001C32  51AC               	movf	(start_TMR3ms@temp_time+1)& (0+255),w,b
   658  001C34  6EB3               	movwf	4019,c	;volatile
   659                           
   660                           ; BSR set to: 0
   661                           ;timers.h: 261: TMR3L = (unsigned char)temp_time;
   662  001C36  C0AB  FFB2         	movff	start_TMR3ms@temp_time,4018	;volatile
   663  001C3A                     l1757:
   664                           
   665                           ; BSR set to: 0
   666                           ;timers.h: 262: }
   667                           ;timers.h: 264: T3CONbits.TMR3ON = 1;
   668  001C3A  80B1               	bsf	4017,0,c	;volatile
   669                           
   670                           ; BSR set to: 0
   671  001C3C  0012               	return		;funcret
   672  001C3E                     __end_of_start_TMR3ms:
   673                           	opt stack 0
   674                           intcon	equ	0xFF2
   675                           status	equ	0xFD8
   676                           
   677 ;; *************** function _start_TMR1ms *****************
   678 ;; Defined at:
   679 ;;		line 173 in file "timers.h"
   680 ;; Parameters:    Size  Location     Type
   681 ;;  milliseconds    2   73[BANK0 ] unsigned int 
   682 ;; Auto vars:     Size  Location     Type
   683 ;;  temp_time       2   75[BANK0 ] unsigned int 
   684 ;; Return value:  Size  Location     Type
   685 ;;                  1    wreg      void 
   686 ;; Registers used:
   687 ;;		wreg, status,2, status,0, cstack
   688 ;; Tracked objects:
   689 ;;		On entry : 0/0
   690 ;;		On exit  : 0/0
   691 ;;		Unchanged: 0/0
   692 ;; Data sizes:     COMRAM   BANK0   BANK1   BANK2   BANK3   BANK4   BANK5   BANK6   BANK7
   693 ;;      Params:         0       2       0       0       0       0       0       0       0
   694 ;;      Locals:         0       2       0       0       0       0       0       0       0
   695 ;;      Temps:          0       0       0       0       0       0       0       0       0
   696 ;;      Totals:         0       4       0       0       0       0       0       0       0
   697 ;;Total ram usage:        4 bytes
   698 ;; Hardware stack levels used:    1
   699 ;; Hardware stack levels required when called:    7
   700 ;; This function calls:
   701 ;;		___ftadd
   702 ;;		___ftdiv
   703 ;;		___ftneg
   704 ;;		___fttol
   705 ;;		___lwtoft
   706 ;; This function is called by:
   707 ;;		_main
   708 ;; This function uses a non-reentrant model
   709 ;;
   710                           
   711                           	psect	text2
   712  001C3E                     __ptext2:
   713                           	opt stack 0
   714  001C3E                     _start_TMR1ms:
   715                           	opt stack 23
   716                           
   717                           ;timers.h: 174: unsigned int temp_time;
   718                           ;timers.h: 176: if (milliseconds > 130){
   719                           
   720                           ; BSR set to: 0
   721                           ;incstack = 0
   722  001C3E  0100               	movlb	0	; () banked
   723  001C40  51AA               	movf	(start_TMR1ms@milliseconds+1)& (0+255),w,b
   724  001C42  E105               	bnz	u1930
   725  001C44  0E83               	movlw	131
   726  001C46  0100               	movlb	0	; () banked
   727  001C48  5DA9               	subwf	start_TMR1ms@milliseconds& (0+255),w,b
   728  001C4A  A0D8               	btfss	status,0,c
   729  001C4C  D005               	goto	l1729
   730  001C4E                     u1930:
   731                           
   732                           ; BSR set to: 0
   733                           ;timers.h: 177: TMR1H = 0;
   734  001C4E  0E00               	movlw	0
   735  001C50  6ECF               	movwf	4047,c	;volatile
   736                           
   737                           ;timers.h: 178: TMR1L = 0;
   738  001C52  0E00               	movlw	0
   739  001C54  6ECE               	movwf	4046,c	;volatile
   740                           
   741                           ;timers.h: 179: }
   742  001C56  D041               	goto	l1735
   743  001C58                     l1729:
   744                           
   745                           ; BSR set to: 0
   746                           ;timers.h: 180: else{
   747                           ;timers.h: 187: temp_time = (unsigned int)(65536 - (milliseconds / 0.002));
   748  001C58  0E00               	movlw	0
   749  001C5A  0100               	movlb	0	; () banked
   750  001C5C  6F91               	movwf	___ftadd@f2& (0+255),b
   751  001C5E  0E80               	movlw	128
   752  001C60  0100               	movlb	0	; () banked
   753  001C62  6F92               	movwf	(___ftadd@f2+1)& (0+255),b
   754  001C64  0E47               	movlw	71
   755  001C66  0100               	movlb	0	; () banked
   756  001C68  6F93               	movwf	(___ftadd@f2+2)& (0+255),b
   757  001C6A  0E12               	movlw	18
   758  001C6C  0100               	movlb	0	; () banked
   759  001C6E  6F7F               	movwf	___ftdiv@f2& (0+255),b
   760  001C70  0E03               	movlw	3
   761  001C72  0100               	movlb	0	; () banked
   762  001C74  6F80               	movwf	(___ftdiv@f2+1)& (0+255),b
   763  001C76  0E3B               	movlw	59
   764  001C78  0100               	movlb	0	; () banked
   765  001C7A  6F81               	movwf	(___ftdiv@f2+2)& (0+255),b
   766  001C7C  C0A9  F079         	movff	start_TMR1ms@milliseconds,___lwtoft@c
   767  001C80  C0AA  F07A         	movff	start_TMR1ms@milliseconds+1,___lwtoft@c+1
   768  001C84  EC0A  F010         	call	___lwtoft	;wreg free
   769  001C88  C079  F07C         	movff	?___lwtoft,___ftdiv@f1
   770  001C8C  C07A  F07D         	movff	?___lwtoft+1,___ftdiv@f1+1
   771  001C90  C07B  F07E         	movff	?___lwtoft+2,___ftdiv@f1+2
   772  001C94  EC5F  F00A         	call	___ftdiv	;wreg free
   773  001C98  C07C  F08B         	movff	?___ftdiv,___ftneg@f1
   774  001C9C  C07D  F08C         	movff	?___ftdiv+1,___ftneg@f1+1
   775  001CA0  C07E  F08D         	movff	?___ftdiv+2,___ftneg@f1+2
   776  001CA4  ECC4  F00F         	call	___ftneg	;wreg free
   777  001CA8  C08B  F08E         	movff	?___ftneg,___ftadd@f1
   778  001CAC  C08C  F08F         	movff	?___ftneg+1,___ftadd@f1+1
   779  001CB0  C08D  F090         	movff	?___ftneg+2,___ftadd@f1+2
   780  001CB4  EC55  F008         	call	___ftadd	;wreg free
   781  001CB8  C08E  F09A         	movff	?___ftadd,___fttol@f1
   782  001CBC  C08F  F09B         	movff	?___ftadd+1,___fttol@f1+1
   783  001CC0  C090  F09C         	movff	?___ftadd+2,___fttol@f1+2
   784  001CC4  EC05  F00B         	call	___fttol	;wreg free
   785  001CC8  C09A  F0AB         	movff	?___fttol,start_TMR1ms@temp_time
   786  001CCC  C09B  F0AC         	movff	?___fttol+1,start_TMR1ms@temp_time+1
   787                           
   788                           ;timers.h: 188: TMR1H = (unsigned char)(temp_time / 256);
   789  001CD0  0100               	movlb	0	; () banked
   790  001CD2  51AC               	movf	(start_TMR1ms@temp_time+1)& (0+255),w,b
   791  001CD4  6ECF               	movwf	4047,c	;volatile
   792                           
   793                           ; BSR set to: 0
   794                           ;timers.h: 189: TMR1L = (unsigned char)temp_time;
   795  001CD6  C0AB  FFCE         	movff	start_TMR1ms@temp_time,4046	;volatile
   796  001CDA                     l1735:
   797                           
   798                           ; BSR set to: 0
   799                           ;timers.h: 190: }
   800                           ;timers.h: 192: T1CONbits.TMR1ON = 1;
   801  001CDA  80CD               	bsf	4045,0,c	;volatile
   802                           
   803                           ; BSR set to: 0
   804  001CDC  0012               	return		;funcret
   805  001CDE                     __end_of_start_TMR1ms:
   806                           	opt stack 0
   807                           intcon	equ	0xFF2
   808                           status	equ	0xFD8
   809                           
   810 ;; *************** function _start_TMR0ms *****************
   811 ;; Defined at:
   812 ;;		line 101 in file "timers.h"
   813 ;; Parameters:    Size  Location     Type
   814 ;;  milliseconds    2   73[BANK0 ] unsigned int 
   815 ;; Auto vars:     Size  Location     Type
   816 ;;  temp_time       2   75[BANK0 ] unsigned int 
   817 ;; Return value:  Size  Location     Type
   818 ;;                  1    wreg      void 
   819 ;; Registers used:
   820 ;;		wreg, status,2, status,0, cstack
   821 ;; Tracked objects:
   822 ;;		On entry : 0/0
   823 ;;		On exit  : 0/0
   824 ;;		Unchanged: 0/0
   825 ;; Data sizes:     COMRAM   BANK0   BANK1   BANK2   BANK3   BANK4   BANK5   BANK6   BANK7
   826 ;;      Params:         0       2       0       0       0       0       0       0       0
   827 ;;      Locals:         0       2       0       0       0       0       0       0       0
   828 ;;      Temps:          0       0       0       0       0       0       0       0       0
   829 ;;      Totals:         0       4       0       0       0       0       0       0       0
   830 ;;Total ram usage:        4 bytes
   831 ;; Hardware stack levels used:    1
   832 ;; Hardware stack levels required when called:    7
   833 ;; This function calls:
   834 ;;		___ftadd
   835 ;;		___ftdiv
   836 ;;		___ftneg
   837 ;;		___fttol
   838 ;;		___lwtoft
   839 ;; This function is called by:
   840 ;;		_main
   841 ;; This function uses a non-reentrant model
   842 ;;
   843                           
   844                           	psect	text3
   845  001CDE                     __ptext3:
   846                           	opt stack 0
   847  001CDE                     _start_TMR0ms:
   848                           	opt stack 23
   849                           
   850                           ;timers.h: 102: unsigned int temp_time;
   851                           ;timers.h: 104: if (milliseconds > 4000){
   852                           
   853                           ; BSR set to: 0
   854                           ;incstack = 0
   855  001CDE  0EA1               	movlw	161
   856  001CE0  0100               	movlb	0	; () banked
   857  001CE2  5DA9               	subwf	start_TMR0ms@milliseconds& (0+255),w,b
   858  001CE4  0E0F               	movlw	15
   859  001CE6  0100               	movlb	0	; () banked
   860  001CE8  59AA               	subwfb	(start_TMR0ms@milliseconds+1)& (0+255),w,b
   861  001CEA  A0D8               	btfss	status,0,c
   862  001CEC  D005               	goto	l1707
   863                           
   864                           ; BSR set to: 0
   865                           ;timers.h: 105: TMR0H = 0;
   866  001CEE  0E00               	movlw	0
   867  001CF0  6ED7               	movwf	4055,c	;volatile
   868                           
   869                           ;timers.h: 106: TMR0L = 0;
   870  001CF2  0E00               	movlw	0
   871  001CF4  6ED6               	movwf	4054,c	;volatile
   872                           
   873                           ;timers.h: 107: }
   874  001CF6  D041               	goto	l1713
   875  001CF8                     l1707:
   876                           
   877                           ; BSR set to: 0
   878                           ;timers.h: 108: else{
   879                           ;timers.h: 115: temp_time = (unsigned int)(65536 - (milliseconds / 0.064));
   880  001CF8  0E00               	movlw	0
   881  001CFA  0100               	movlb	0	; () banked
   882  001CFC  6F91               	movwf	___ftadd@f2& (0+255),b
   883  001CFE  0E80               	movlw	128
   884  001D00  0100               	movlb	0	; () banked
   885  001D02  6F92               	movwf	(___ftadd@f2+1)& (0+255),b
   886  001D04  0E47               	movlw	71
   887  001D06  0100               	movlb	0	; () banked
   888  001D08  6F93               	movwf	(___ftadd@f2+2)& (0+255),b
   889  001D0A  0E12               	movlw	18
   890  001D0C  0100               	movlb	0	; () banked
   891  001D0E  6F7F               	movwf	___ftdiv@f2& (0+255),b
   892  001D10  0E83               	movlw	131
   893  001D12  0100               	movlb	0	; () banked
   894  001D14  6F80               	movwf	(___ftdiv@f2+1)& (0+255),b
   895  001D16  0E3D               	movlw	61
   896  001D18  0100               	movlb	0	; () banked
   897  001D1A  6F81               	movwf	(___ftdiv@f2+2)& (0+255),b
   898  001D1C  C0A9  F079         	movff	start_TMR0ms@milliseconds,___lwtoft@c
   899  001D20  C0AA  F07A         	movff	start_TMR0ms@milliseconds+1,___lwtoft@c+1
   900  001D24  EC0A  F010         	call	___lwtoft	;wreg free
   901  001D28  C079  F07C         	movff	?___lwtoft,___ftdiv@f1
   902  001D2C  C07A  F07D         	movff	?___lwtoft+1,___ftdiv@f1+1
   903  001D30  C07B  F07E         	movff	?___lwtoft+2,___ftdiv@f1+2
   904  001D34  EC5F  F00A         	call	___ftdiv	;wreg free
   905  001D38  C07C  F08B         	movff	?___ftdiv,___ftneg@f1
   906  001D3C  C07D  F08C         	movff	?___ftdiv+1,___ftneg@f1+1
   907  001D40  C07E  F08D         	movff	?___ftdiv+2,___ftneg@f1+2
   908  001D44  ECC4  F00F         	call	___ftneg	;wreg free
   909  001D48  C08B  F08E         	movff	?___ftneg,___ftadd@f1
   910  001D4C  C08C  F08F         	movff	?___ftneg+1,___ftadd@f1+1
   911  001D50  C08D  F090         	movff	?___ftneg+2,___ftadd@f1+2
   912  001D54  EC55  F008         	call	___ftadd	;wreg free
   913  001D58  C08E  F09A         	movff	?___ftadd,___fttol@f1
   914  001D5C  C08F  F09B         	movff	?___ftadd+1,___fttol@f1+1
   915  001D60  C090  F09C         	movff	?___ftadd+2,___fttol@f1+2
   916  001D64  EC05  F00B         	call	___fttol	;wreg free
   917  001D68  C09A  F0AB         	movff	?___fttol,start_TMR0ms@temp_time
   918  001D6C  C09B  F0AC         	movff	?___fttol+1,start_TMR0ms@temp_time+1
   919                           
   920                           ;timers.h: 116: TMR0H = (unsigned char)(temp_time / 256);
   921  001D70  0100               	movlb	0	; () banked
   922  001D72  51AC               	movf	(start_TMR0ms@temp_time+1)& (0+255),w,b
   923  001D74  6ED7               	movwf	4055,c	;volatile
   924                           
   925                           ; BSR set to: 0
   926                           ;timers.h: 117: TMR0L = (unsigned char)temp_time;
   927  001D76  C0AB  FFD6         	movff	start_TMR0ms@temp_time,4054	;volatile
   928  001D7A                     l1713:
   929                           
   930                           ; BSR set to: 0
   931                           ;timers.h: 120: }
   932                           ;timers.h: 122: T0CONbits.TMR0ON = 1;
   933  001D7A  8ED5               	bsf	4053,7,c	;volatile
   934                           
   935                           ; BSR set to: 0
   936  001D7C  0012               	return		;funcret
   937  001D7E                     __end_of_start_TMR0ms:
   938                           	opt stack 0
   939                           intcon	equ	0xFF2
   940                           status	equ	0xFD8
   941                           
   942 ;; *************** function ___lwtoft *****************
   943 ;; Defined at:
   944 ;;		line 28 in file "C:\Program Files (x86)\Microchip\xc8\v1.42\sources\common\lwtoft.c"
   945 ;; Parameters:    Size  Location     Type
   946 ;;  c               2   25[BANK0 ] unsigned int 
   947 ;; Auto vars:     Size  Location     Type
   948 ;;		None
   949 ;; Return value:  Size  Location     Type
   950 ;;                  3   25[BANK0 ] float 
   951 ;; Registers used:
   952 ;;		wreg, status,2, status,0, cstack
   953 ;; Tracked objects:
   954 ;;		On entry : 0/0
   955 ;;		On exit  : 0/0
   956 ;;		Unchanged: 0/0
   957 ;; Data sizes:     COMRAM   BANK0   BANK1   BANK2   BANK3   BANK4   BANK5   BANK6   BANK7
   958 ;;      Params:         0       3       0       0       0       0       0       0       0
   959 ;;      Locals:         0       0       0       0       0       0       0       0       0
   960 ;;      Temps:          0       0       0       0       0       0       0       0       0
   961 ;;      Totals:         0       3       0       0       0       0       0       0       0
   962 ;;Total ram usage:        3 bytes
   963 ;; Hardware stack levels used:    1
   964 ;; Hardware stack levels required when called:    6
   965 ;; This function calls:
   966 ;;		___ftpack
   967 ;; This function is called by:
   968 ;;		_start_TMR0ms
   969 ;;		_start_TMR1ms
   970 ;;		_start_TMR3ms
   971 ;; This function uses a non-reentrant model
   972 ;;
   973                           
   974                           	psect	text4
   975  002014                     __ptext4:
   976                           	opt stack 0
   977  002014                     ___lwtoft:
   978                           	opt stack 23
   979                           
   980                           ; BSR set to: 0
   981                           ;incstack = 0
   982  002014  C079  F071         	movff	___lwtoft@c,___ftpack@arg
   983  002018  C07A  F072         	movff	___lwtoft@c+1,___ftpack@arg+1
   984  00201C  0100               	movlb	0	; () banked
   985  00201E  6B73               	clrf	(___ftpack@arg+2)& (0+255),b
   986  002020  0E8E               	movlw	142
   987  002022  0100               	movlb	0	; () banked
   988  002024  6F74               	movwf	___ftpack@exp& (0+255),b
   989  002026  0E00               	movlw	0
   990  002028  0100               	movlb	0	; () banked
   991  00202A  6F75               	movwf	___ftpack@sign& (0+255),b
   992  00202C  ECA7  F00B         	call	___ftpack	;wreg free
   993  002030  C071  F079         	movff	?___ftpack,?___lwtoft
   994  002034  C072  F07A         	movff	?___ftpack+1,?___lwtoft+1
   995  002038  C073  F07B         	movff	?___ftpack+2,?___lwtoft+2
   996  00203C  0012               	return	
   997  00203E                     __end_of___lwtoft:
   998                           	opt stack 0
   999                           intcon	equ	0xFF2
  1000                           status	equ	0xFD8
  1001                           
  1002 ;; *************** function ___fttol *****************
  1003 ;; Defined at:
  1004 ;;		line 44 in file "C:\Program Files (x86)\Microchip\xc8\v1.42\sources\common\fttol.c"
  1005 ;; Parameters:    Size  Location     Type
  1006 ;;  f1              3   58[BANK0 ] float 
  1007 ;; Auto vars:     Size  Location     Type
  1008 ;;  lval            4   68[BANK0 ] unsigned long 
  1009 ;;  exp1            1   72[BANK0 ] unsigned char 
  1010 ;;  sign1           1   67[BANK0 ] unsigned char 
  1011 ;; Return value:  Size  Location     Type
  1012 ;;                  4   58[BANK0 ] long 
  1013 ;; Registers used:
  1014 ;;		wreg, status,2, status,0
  1015 ;; Tracked objects:
  1016 ;;		On entry : 0/0
  1017 ;;		On exit  : 0/0
  1018 ;;		Unchanged: 0/0
  1019 ;; Data sizes:     COMRAM   BANK0   BANK1   BANK2   BANK3   BANK4   BANK5   BANK6   BANK7
  1020 ;;      Params:         0       4       0       0       0       0       0       0       0
  1021 ;;      Locals:         0       6       0       0       0       0       0       0       0
  1022 ;;      Temps:          0       5       0       0       0       0       0       0       0
  1023 ;;      Totals:         0      15       0       0       0       0       0       0       0
  1024 ;;Total ram usage:       15 bytes
  1025 ;; Hardware stack levels used:    1
  1026 ;; Hardware stack levels required when called:    5
  1027 ;; This function calls:
  1028 ;;		Nothing
  1029 ;; This function is called by:
  1030 ;;		_start_TMR0ms
  1031 ;;		_start_TMR1ms
  1032 ;;		_start_TMR3ms
  1033 ;; This function uses a non-reentrant model
  1034 ;;
  1035                           
  1036                           	psect	text5
  1037  00160A                     __ptext5:
  1038                           	opt stack 0
  1039  00160A                     ___fttol:
  1040                           	opt stack 24
  1041                           
  1042                           ;incstack = 0
  1043  00160A  C09C  F09E         	movff	___fttol@f1+2,??___fttol
  1044  00160E  0100               	movlb	0	; () banked
  1045  001610  6B9F               	clrf	(??___fttol+1)& (0+255),b
  1046  001612  6BA0               	clrf	(??___fttol+2)& (0+255),b
  1047  001614  0100               	movlb	0	; () banked
  1048  001616  359B               	rlcf	(___fttol@f1+1)& (0+255),w,b
  1049  001618  0100               	movlb	0	; () banked
  1050  00161A  379E               	rlcf	??___fttol& (0+255),f,b
  1051  00161C  E301               	bnc	u1451
  1052  00161E  819F               	bsf	(??___fttol+1)& (0+255),0,b
  1053  001620                     u1451:
  1054  001620  0100               	movlb	0	; () banked
  1055  001622  519E               	movf	??___fttol& (0+255),w,b
  1056  001624  0100               	movlb	0	; () banked
  1057  001626  6FA8               	movwf	___fttol@exp1& (0+255),b
  1058  001628  0100               	movlb	0	; () banked
  1059  00162A  51A8               	movf	___fttol@exp1& (0+255),w,b
  1060  00162C  A4D8               	btfss	status,2,c
  1061  00162E  D00A               	goto	l1479
  1062                           
  1063                           ; BSR set to: 0
  1064  001630  0E00               	movlw	0
  1065  001632  0100               	movlb	0	; () banked
  1066  001634  6F9A               	movwf	?___fttol& (0+255),b
  1067  001636  0E00               	movlw	0
  1068  001638  6F9B               	movwf	(?___fttol+1)& (0+255),b
  1069  00163A  0E00               	movlw	0
  1070  00163C  6F9C               	movwf	(?___fttol+2)& (0+255),b
  1071  00163E  0E00               	movlw	0
  1072  001640  6F9D               	movwf	(?___fttol+3)& (0+255),b
  1073                           
  1074                           ; BSR set to: 0
  1075  001642  0012               	return	
  1076  001644                     l1479:
  1077                           
  1078                           ; BSR set to: 0
  1079  001644  0E17               	movlw	23
  1080  001646  0100               	movlb	0	; () banked
  1081  001648  6F9E               	movwf	??___fttol& (0+255),b
  1082  00164A  C09A  F09F         	movff	___fttol@f1,??___fttol+1
  1083  00164E  C09B  F0A0         	movff	___fttol@f1+1,??___fttol+2
  1084  001652  C09C  F0A1         	movff	___fttol@f1+2,??___fttol+3
  1085  001656  0100               	movlb	0	; () banked
  1086  001658  299E               	incf	??___fttol& (0+255),w,b
  1087  00165A  0100               	movlb	0	; () banked
  1088  00165C  6FA2               	movwf	(??___fttol+4)& (0+255),b
  1089  00165E  D005               	goto	u1470
  1090  001660                     u1475:
  1091  001660  0100               	movlb	0	; () banked
  1092  001662  90D8               	bcf	status,0,c
  1093  001664  33A1               	rrcf	(??___fttol+3)& (0+255),f,b
  1094  001666  33A0               	rrcf	(??___fttol+2)& (0+255),f,b
  1095  001668  339F               	rrcf	(??___fttol+1)& (0+255),f,b
  1096  00166A                     u1470:
  1097  00166A  0100               	movlb	0	; () banked
  1098  00166C  2FA2               	decfsz	(??___fttol+4)& (0+255),f,b
  1099  00166E  D7F8               	goto	u1475
  1100  001670  0100               	movlb	0	; () banked
  1101  001672  519F               	movf	(??___fttol+1)& (0+255),w,b
  1102  001674  0100               	movlb	0	; () banked
  1103  001676  6FA3               	movwf	___fttol@sign1& (0+255),b
  1104                           
  1105                           ; BSR set to: 0
  1106  001678  0100               	movlb	0	; () banked
  1107  00167A  8F9B               	bsf	(___fttol@f1+1)& (0+255),7,b
  1108                           
  1109                           ; BSR set to: 0
  1110  00167C  0EFF               	movlw	255
  1111  00167E  0100               	movlb	0	; () banked
  1112  001680  179A               	andwf	___fttol@f1& (0+255),f,b
  1113  001682  0EFF               	movlw	255
  1114  001684  0100               	movlb	0	; () banked
  1115  001686  179B               	andwf	(___fttol@f1+1)& (0+255),f,b
  1116  001688  0E00               	movlw	0
  1117  00168A  0100               	movlb	0	; () banked
  1118  00168C  179C               	andwf	(___fttol@f1+2)& (0+255),f,b
  1119                           
  1120                           ; BSR set to: 0
  1121  00168E  0100               	movlb	0	; () banked
  1122  001690  519A               	movf	___fttol@f1& (0+255),w,b
  1123  001692  0100               	movlb	0	; () banked
  1124  001694  6FA4               	movwf	___fttol@lval& (0+255),b
  1125  001696  0100               	movlb	0	; () banked
  1126  001698  519B               	movf	(___fttol@f1+1)& (0+255),w,b
  1127  00169A  0100               	movlb	0	; () banked
  1128  00169C  6FA5               	movwf	(___fttol@lval+1)& (0+255),b
  1129  00169E  0100               	movlb	0	; () banked
  1130  0016A0  519C               	movf	(___fttol@f1+2)& (0+255),w,b
  1131  0016A2  0100               	movlb	0	; () banked
  1132  0016A4  6FA6               	movwf	(___fttol@lval+2)& (0+255),b
  1133  0016A6  0100               	movlb	0	; () banked
  1134  0016A8  6BA7               	clrf	(___fttol@lval+3)& (0+255),b
  1135                           
  1136                           ; BSR set to: 0
  1137  0016AA  0E8E               	movlw	142
  1138  0016AC  0100               	movlb	0	; () banked
  1139  0016AE  5FA8               	subwf	___fttol@exp1& (0+255),f,b
  1140                           
  1141                           ; BSR set to: 0
  1142  0016B0  0100               	movlb	0	; () banked
  1143  0016B2  AFA8               	btfss	___fttol@exp1& (0+255),7,b
  1144  0016B4  D01A               	goto	l1501
  1145                           
  1146                           ; BSR set to: 0
  1147  0016B6  0100               	movlb	0	; () banked
  1148  0016B8  51A8               	movf	___fttol@exp1& (0+255),w,b
  1149  0016BA  0A80               	xorlw	128
  1150  0016BC  0F8F               	addlw	143
  1151  0016BE  B0D8               	btfsc	status,0,c
  1152  0016C0  D00A               	goto	l1497
  1153                           
  1154                           ; BSR set to: 0
  1155  0016C2  0E00               	movlw	0
  1156  0016C4  0100               	movlb	0	; () banked
  1157  0016C6  6F9A               	movwf	?___fttol& (0+255),b
  1158  0016C8  0E00               	movlw	0
  1159  0016CA  6F9B               	movwf	(?___fttol+1)& (0+255),b
  1160  0016CC  0E00               	movlw	0
  1161  0016CE  6F9C               	movwf	(?___fttol+2)& (0+255),b
  1162  0016D0  0E00               	movlw	0
  1163  0016D2  6F9D               	movwf	(?___fttol+3)& (0+255),b
  1164                           
  1165                           ; BSR set to: 0
  1166  0016D4  0012               	return	
  1167  0016D6                     l1497:
  1168                           
  1169                           ; BSR set to: 0
  1170  0016D6  0100               	movlb	0	; () banked
  1171  0016D8  90D8               	bcf	status,0,c
  1172  0016DA  33A7               	rrcf	(___fttol@lval+3)& (0+255),f,b
  1173  0016DC  33A6               	rrcf	(___fttol@lval+2)& (0+255),f,b
  1174  0016DE  33A5               	rrcf	(___fttol@lval+1)& (0+255),f,b
  1175  0016E0  33A4               	rrcf	___fttol@lval& (0+255),f,b
  1176                           
  1177                           ; BSR set to: 0
  1178  0016E2  0100               	movlb	0	; () banked
  1179  0016E4  3FA8               	incfsz	___fttol@exp1& (0+255),f,b
  1180  0016E6  D7F7               	goto	l1497
  1181                           
  1182                           ; BSR set to: 0
  1183  0016E8  D01B               	goto	l1511
  1184  0016EA                     l1501:
  1185                           
  1186                           ; BSR set to: 0
  1187  0016EA  0E17               	movlw	23
  1188  0016EC  0100               	movlb	0	; () banked
  1189  0016EE  65A8               	cpfsgt	___fttol@exp1& (0+255),b
  1190  0016F0  D012               	goto	l1509
  1191                           
  1192                           ; BSR set to: 0
  1193  0016F2  0E00               	movlw	0
  1194  0016F4  0100               	movlb	0	; () banked
  1195  0016F6  6F9A               	movwf	?___fttol& (0+255),b
  1196  0016F8  0E00               	movlw	0
  1197  0016FA  6F9B               	movwf	(?___fttol+1)& (0+255),b
  1198  0016FC  0E00               	movlw	0
  1199  0016FE  6F9C               	movwf	(?___fttol+2)& (0+255),b
  1200  001700  0E00               	movlw	0
  1201  001702  6F9D               	movwf	(?___fttol+3)& (0+255),b
  1202                           
  1203                           ; BSR set to: 0
  1204  001704  0012               	return	
  1205  001706                     l1507:
  1206                           
  1207                           ; BSR set to: 0
  1208  001706  0100               	movlb	0	; () banked
  1209  001708  90D8               	bcf	status,0,c
  1210  00170A  37A4               	rlcf	___fttol@lval& (0+255),f,b
  1211  00170C  37A5               	rlcf	(___fttol@lval+1)& (0+255),f,b
  1212  00170E  37A6               	rlcf	(___fttol@lval+2)& (0+255),f,b
  1213  001710  37A7               	rlcf	(___fttol@lval+3)& (0+255),f,b
  1214  001712  0100               	movlb	0	; () banked
  1215  001714  07A8               	decf	___fttol@exp1& (0+255),f,b
  1216  001716                     l1509:
  1217                           
  1218                           ; BSR set to: 0
  1219  001716  0100               	movlb	0	; () banked
  1220  001718  51A8               	movf	___fttol@exp1& (0+255),w,b
  1221  00171A  0100               	movlb	0	; () banked
  1222  00171C  A4D8               	btfss	status,2,c
  1223  00171E  D7F3               	goto	l1507
  1224  001720                     l1511:
  1225                           
  1226                           ; BSR set to: 0
  1227  001720  0100               	movlb	0	; () banked
  1228  001722  51A3               	movf	___fttol@sign1& (0+255),w,b
  1229  001724  0100               	movlb	0	; () banked
  1230  001726  B4D8               	btfsc	status,2,c
  1231  001728  D009               	goto	l1515
  1232                           
  1233                           ; BSR set to: 0
  1234  00172A  0100               	movlb	0	; () banked
  1235  00172C  1FA7               	comf	(___fttol@lval+3)& (0+255),f,b
  1236  00172E  1FA6               	comf	(___fttol@lval+2)& (0+255),f,b
  1237  001730  1FA5               	comf	(___fttol@lval+1)& (0+255),f,b
  1238  001732  6DA4               	negf	___fttol@lval& (0+255),b
  1239  001734  0E00               	movlw	0
  1240  001736  23A5               	addwfc	(___fttol@lval+1)& (0+255),f,b
  1241  001738  23A6               	addwfc	(___fttol@lval+2)& (0+255),f,b
  1242  00173A  23A7               	addwfc	(___fttol@lval+3)& (0+255),f,b
  1243  00173C                     l1515:
  1244                           
  1245                           ; BSR set to: 0
  1246  00173C  C0A4  F09A         	movff	___fttol@lval,?___fttol
  1247  001740  C0A5  F09B         	movff	___fttol@lval+1,?___fttol+1
  1248  001744  C0A6  F09C         	movff	___fttol@lval+2,?___fttol+2
  1249  001748  C0A7  F09D         	movff	___fttol@lval+3,?___fttol+3
  1250  00174C  0012               	return	
  1251  00174E                     __end_of___fttol:
  1252                           	opt stack 0
  1253                           intcon	equ	0xFF2
  1254                           status	equ	0xFD8
  1255                           
  1256 ;; *************** function ___ftneg *****************
  1257 ;; Defined at:
  1258 ;;		line 15 in file "C:\Program Files (x86)\Microchip\xc8\v1.42\sources\common\ftneg.c"
  1259 ;; Parameters:    Size  Location     Type
  1260 ;;  f1              3   43[BANK0 ] float 
  1261 ;; Auto vars:     Size  Location     Type
  1262 ;;		None
  1263 ;; Return value:  Size  Location     Type
  1264 ;;                  3   43[BANK0 ] float 
  1265 ;; Registers used:
  1266 ;;		wreg, status,2, status,0
  1267 ;; Tracked objects:
  1268 ;;		On entry : 0/0
  1269 ;;		On exit  : 0/0
  1270 ;;		Unchanged: 0/0
  1271 ;; Data sizes:     COMRAM   BANK0   BANK1   BANK2   BANK3   BANK4   BANK5   BANK6   BANK7
  1272 ;;      Params:         0       3       0       0       0       0       0       0       0
  1273 ;;      Locals:         0       0       0       0       0       0       0       0       0
  1274 ;;      Temps:          0       0       0       0       0       0       0       0       0
  1275 ;;      Totals:         0       3       0       0       0       0       0       0       0
  1276 ;;Total ram usage:        3 bytes
  1277 ;; Hardware stack levels used:    1
  1278 ;; Hardware stack levels required when called:    5
  1279 ;; This function calls:
  1280 ;;		Nothing
  1281 ;; This function is called by:
  1282 ;;		_start_TMR0ms
  1283 ;;		_start_TMR1ms
  1284 ;;		_start_TMR3ms
  1285 ;; This function uses a non-reentrant model
  1286 ;;
  1287                           
  1288                           	psect	text6
  1289  001F88                     __ptext6:
  1290                           	opt stack 0
  1291  001F88                     ___ftneg:
  1292                           	opt stack 24
  1293                           
  1294                           ; BSR set to: 0
  1295                           ;incstack = 0
  1296  001F88  0100               	movlb	0	; () banked
  1297  001F8A  518B               	movf	___ftneg@f1& (0+255),w,b
  1298  001F8C  0100               	movlb	0	; () banked
  1299  001F8E  118C               	iorwf	(___ftneg@f1+1)& (0+255),w,b
  1300  001F90  0100               	movlb	0	; () banked
  1301  001F92  118D               	iorwf	(___ftneg@f1+2)& (0+255),w,b
  1302  001F94  B4D8               	btfsc	status,2,c
  1303  001F96  D009               	goto	l408
  1304                           
  1305                           ; BSR set to: 0
  1306  001F98  0E00               	movlw	0
  1307  001F9A  0100               	movlb	0	; () banked
  1308  001F9C  1B8B               	xorwf	___ftneg@f1& (0+255),f,b
  1309  001F9E  0E00               	movlw	0
  1310  001FA0  0100               	movlb	0	; () banked
  1311  001FA2  1B8C               	xorwf	(___ftneg@f1+1)& (0+255),f,b
  1312  001FA4  0E80               	movlw	128
  1313  001FA6  0100               	movlb	0	; () banked
  1314  001FA8  1B8D               	xorwf	(___ftneg@f1+2)& (0+255),f,b
  1315  001FAA                     l408:
  1316                           
  1317                           ; BSR set to: 0
  1318  001FAA  C08B  F08B         	movff	___ftneg@f1,?___ftneg
  1319  001FAE  C08C  F08C         	movff	___ftneg@f1+1,?___ftneg+1
  1320  001FB2  C08D  F08D         	movff	___ftneg@f1+2,?___ftneg+2
  1321                           
  1322                           ; BSR set to: 0
  1323  001FB6  0012               	return		;funcret
  1324  001FB8                     __end_of___ftneg:
  1325                           	opt stack 0
  1326                           intcon	equ	0xFF2
  1327                           status	equ	0xFD8
  1328                           
  1329 ;; *************** function ___ftdiv *****************
  1330 ;; Defined at:
  1331 ;;		line 54 in file "C:\Program Files (x86)\Microchip\xc8\v1.42\sources\common\ftdiv.c"
  1332 ;; Parameters:    Size  Location     Type
  1333 ;;  f1              3   28[BANK0 ] float 
  1334 ;;  f2              3   31[BANK0 ] float 
  1335 ;; Auto vars:     Size  Location     Type
  1336 ;;  f3              3   38[BANK0 ] float 
  1337 ;;  sign            1   42[BANK0 ] unsigned char 
  1338 ;;  exp             1   41[BANK0 ] unsigned char 
  1339 ;;  cntr            1   37[BANK0 ] unsigned char 
  1340 ;; Return value:  Size  Location     Type
  1341 ;;                  3   28[BANK0 ] float 
  1342 ;; Registers used:
  1343 ;;		wreg, status,2, status,0, cstack
  1344 ;; Tracked objects:
  1345 ;;		On entry : 0/0
  1346 ;;		On exit  : 0/0
  1347 ;;		Unchanged: 0/0
  1348 ;; Data sizes:     COMRAM   BANK0   BANK1   BANK2   BANK3   BANK4   BANK5   BANK6   BANK7
  1349 ;;      Params:         0       6       0       0       0       0       0       0       0
  1350 ;;      Locals:         0       6       0       0       0       0       0       0       0
  1351 ;;      Temps:          0       3       0       0       0       0       0       0       0
  1352 ;;      Totals:         0      15       0       0       0       0       0       0       0
  1353 ;;Total ram usage:       15 bytes
  1354 ;; Hardware stack levels used:    1
  1355 ;; Hardware stack levels required when called:    6
  1356 ;; This function calls:
  1357 ;;		___ftpack
  1358 ;; This function is called by:
  1359 ;;		_start_TMR0ms
  1360 ;;		_start_TMR1ms
  1361 ;;		_start_TMR3ms
  1362 ;; This function uses a non-reentrant model
  1363 ;;
  1364                           
  1365                           	psect	text7
  1366  0014BE                     __ptext7:
  1367                           	opt stack 0
  1368  0014BE                     ___ftdiv:
  1369                           	opt stack 23
  1370                           
  1371                           ; BSR set to: 0
  1372                           ;incstack = 0
  1373  0014BE  C07E  F082         	movff	___ftdiv@f1+2,??___ftdiv
  1374  0014C2  0100               	movlb	0	; () banked
  1375  0014C4  6B83               	clrf	(??___ftdiv+1)& (0+255),b
  1376  0014C6  6B84               	clrf	(??___ftdiv+2)& (0+255),b
  1377  0014C8  0100               	movlb	0	; () banked
  1378  0014CA  357D               	rlcf	(___ftdiv@f1+1)& (0+255),w,b
  1379  0014CC  0100               	movlb	0	; () banked
  1380  0014CE  3782               	rlcf	??___ftdiv& (0+255),f,b
  1381  0014D0  E301               	bnc	u1391
  1382  0014D2  8183               	bsf	(??___ftdiv+1)& (0+255),0,b
  1383  0014D4                     u1391:
  1384  0014D4  0100               	movlb	0	; () banked
  1385  0014D6  5182               	movf	??___ftdiv& (0+255),w,b
  1386  0014D8  0100               	movlb	0	; () banked
  1387  0014DA  6F89               	movwf	___ftdiv@exp& (0+255),b
  1388  0014DC  0100               	movlb	0	; () banked
  1389  0014DE  5189               	movf	___ftdiv@exp& (0+255),w,b
  1390  0014E0  A4D8               	btfss	status,2,c
  1391  0014E2  D00A               	goto	l1429
  1392                           
  1393                           ; BSR set to: 0
  1394  0014E4  0E00               	movlw	0
  1395  0014E6  0100               	movlb	0	; () banked
  1396  0014E8  6F7C               	movwf	?___ftdiv& (0+255),b
  1397  0014EA  0E00               	movlw	0
  1398  0014EC  0100               	movlb	0	; () banked
  1399  0014EE  6F7D               	movwf	(?___ftdiv+1)& (0+255),b
  1400  0014F0  0E00               	movlw	0
  1401  0014F2  0100               	movlb	0	; () banked
  1402  0014F4  6F7E               	movwf	(?___ftdiv+2)& (0+255),b
  1403                           
  1404                           ; BSR set to: 0
  1405  0014F6  0012               	return	
  1406  0014F8                     l1429:
  1407                           
  1408                           ; BSR set to: 0
  1409  0014F8  C081  F082         	movff	___ftdiv@f2+2,??___ftdiv
  1410  0014FC  0100               	movlb	0	; () banked
  1411  0014FE  6B83               	clrf	(??___ftdiv+1)& (0+255),b
  1412  001500  6B84               	clrf	(??___ftdiv+2)& (0+255),b
  1413  001502  0100               	movlb	0	; () banked
  1414  001504  3580               	rlcf	(___ftdiv@f2+1)& (0+255),w,b
  1415  001506  0100               	movlb	0	; () banked
  1416  001508  3782               	rlcf	??___ftdiv& (0+255),f,b
  1417  00150A  E301               	bnc	u1411
  1418  00150C  8183               	bsf	(??___ftdiv+1)& (0+255),0,b
  1419  00150E                     u1411:
  1420  00150E  0100               	movlb	0	; () banked
  1421  001510  5182               	movf	??___ftdiv& (0+255),w,b
  1422  001512  0100               	movlb	0	; () banked
  1423  001514  6F8A               	movwf	___ftdiv@sign& (0+255),b
  1424  001516  0100               	movlb	0	; () banked
  1425  001518  518A               	movf	___ftdiv@sign& (0+255),w,b
  1426  00151A  A4D8               	btfss	status,2,c
  1427  00151C  D00A               	goto	l1435
  1428                           
  1429                           ; BSR set to: 0
  1430  00151E  0E00               	movlw	0
  1431  001520  0100               	movlb	0	; () banked
  1432  001522  6F7C               	movwf	?___ftdiv& (0+255),b
  1433  001524  0E00               	movlw	0
  1434  001526  0100               	movlb	0	; () banked
  1435  001528  6F7D               	movwf	(?___ftdiv+1)& (0+255),b
  1436  00152A  0E00               	movlw	0
  1437  00152C  0100               	movlb	0	; () banked
  1438  00152E  6F7E               	movwf	(?___ftdiv+2)& (0+255),b
  1439                           
  1440                           ; BSR set to: 0
  1441  001530  0012               	return	
  1442  001532                     l1435:
  1443                           
  1444                           ; BSR set to: 0
  1445  001532  0E00               	movlw	0
  1446  001534  0100               	movlb	0	; () banked
  1447  001536  6F86               	movwf	___ftdiv@f3& (0+255),b
  1448  001538  0E00               	movlw	0
  1449  00153A  0100               	movlb	0	; () banked
  1450  00153C  6F87               	movwf	(___ftdiv@f3+1)& (0+255),b
  1451  00153E  0E00               	movlw	0
  1452  001540  0100               	movlb	0	; () banked
  1453  001542  6F88               	movwf	(___ftdiv@f3+2)& (0+255),b
  1454                           
  1455                           ; BSR set to: 0
  1456  001544  0100               	movlb	0	; () banked
  1457  001546  518A               	movf	___ftdiv@sign& (0+255),w,b
  1458  001548  0F89               	addlw	137
  1459  00154A  0100               	movlb	0	; () banked
  1460  00154C  5F89               	subwf	___ftdiv@exp& (0+255),f,b
  1461                           
  1462                           ; BSR set to: 0
  1463  00154E  C07E  F08A         	movff	___ftdiv@f1+2,___ftdiv@sign
  1464                           
  1465                           ; BSR set to: 0
  1466  001552  0100               	movlb	0	; () banked
  1467  001554  5181               	movf	(___ftdiv@f2+2)& (0+255),w,b
  1468  001556  0100               	movlb	0	; () banked
  1469  001558  1B8A               	xorwf	___ftdiv@sign& (0+255),f,b
  1470                           
  1471                           ; BSR set to: 0
  1472  00155A  0E80               	movlw	128
  1473  00155C  0100               	movlb	0	; () banked
  1474  00155E  178A               	andwf	___ftdiv@sign& (0+255),f,b
  1475                           
  1476                           ; BSR set to: 0
  1477  001560  0100               	movlb	0	; () banked
  1478  001562  8F7D               	bsf	(___ftdiv@f1+1)& (0+255),7,b
  1479                           
  1480                           ; BSR set to: 0
  1481  001564  0EFF               	movlw	255
  1482  001566  0100               	movlb	0	; () banked
  1483  001568  177C               	andwf	___ftdiv@f1& (0+255),f,b
  1484  00156A  0EFF               	movlw	255
  1485  00156C  0100               	movlb	0	; () banked
  1486  00156E  177D               	andwf	(___ftdiv@f1+1)& (0+255),f,b
  1487  001570  0E00               	movlw	0
  1488  001572  0100               	movlb	0	; () banked
  1489  001574  177E               	andwf	(___ftdiv@f1+2)& (0+255),f,b
  1490                           
  1491                           ; BSR set to: 0
  1492  001576  0100               	movlb	0	; () banked
  1493  001578  8F80               	bsf	(___ftdiv@f2+1)& (0+255),7,b
  1494                           
  1495                           ; BSR set to: 0
  1496  00157A  0EFF               	movlw	255
  1497  00157C  0100               	movlb	0	; () banked
  1498  00157E  177F               	andwf	___ftdiv@f2& (0+255),f,b
  1499  001580  0EFF               	movlw	255
  1500  001582  0100               	movlb	0	; () banked
  1501  001584  1780               	andwf	(___ftdiv@f2+1)& (0+255),f,b
  1502  001586  0E00               	movlw	0
  1503  001588  0100               	movlb	0	; () banked
  1504  00158A  1781               	andwf	(___ftdiv@f2+2)& (0+255),f,b
  1505                           
  1506                           ; BSR set to: 0
  1507  00158C  0E18               	movlw	24
  1508  00158E  0100               	movlb	0	; () banked
  1509  001590  6F85               	movwf	___ftdiv@cntr& (0+255),b
  1510  001592                     l1455:
  1511                           
  1512                           ; BSR set to: 0
  1513  001592  0100               	movlb	0	; () banked
  1514  001594  90D8               	bcf	status,0,c
  1515  001596  3786               	rlcf	___ftdiv@f3& (0+255),f,b
  1516  001598  3787               	rlcf	(___ftdiv@f3+1)& (0+255),f,b
  1517  00159A  3788               	rlcf	(___ftdiv@f3+2)& (0+255),f,b
  1518                           
  1519                           ; BSR set to: 0
  1520  00159C  0100               	movlb	0	; () banked
  1521  00159E  517F               	movf	___ftdiv@f2& (0+255),w,b
  1522  0015A0  0100               	movlb	0	; () banked
  1523  0015A2  5D7C               	subwf	___ftdiv@f1& (0+255),w,b
  1524  0015A4  0100               	movlb	0	; () banked
  1525  0015A6  5180               	movf	(___ftdiv@f2+1)& (0+255),w,b
  1526  0015A8  0100               	movlb	0	; () banked
  1527  0015AA  597D               	subwfb	(___ftdiv@f1+1)& (0+255),w,b
  1528  0015AC  0100               	movlb	0	; () banked
  1529  0015AE  5181               	movf	(___ftdiv@f2+2)& (0+255),w,b
  1530  0015B0  0100               	movlb	0	; () banked
  1531  0015B2  597E               	subwfb	(___ftdiv@f1+2)& (0+255),w,b
  1532  0015B4  A0D8               	btfss	status,0,c
  1533  0015B6  D00E               	goto	l386
  1534                           
  1535                           ; BSR set to: 0
  1536  0015B8  0100               	movlb	0	; () banked
  1537  0015BA  517F               	movf	___ftdiv@f2& (0+255),w,b
  1538  0015BC  0100               	movlb	0	; () banked
  1539  0015BE  5F7C               	subwf	___ftdiv@f1& (0+255),f,b
  1540  0015C0  0100               	movlb	0	; () banked
  1541  0015C2  5180               	movf	(___ftdiv@f2+1)& (0+255),w,b
  1542  0015C4  0100               	movlb	0	; () banked
  1543  0015C6  5B7D               	subwfb	(___ftdiv@f1+1)& (0+255),f,b
  1544  0015C8  0100               	movlb	0	; () banked
  1545  0015CA  5181               	movf	(___ftdiv@f2+2)& (0+255),w,b
  1546  0015CC  0100               	movlb	0	; () banked
  1547  0015CE  5B7E               	subwfb	(___ftdiv@f1+2)& (0+255),f,b
  1548                           
  1549                           ; BSR set to: 0
  1550  0015D0  0100               	movlb	0	; () banked
  1551  0015D2  8186               	bsf	___ftdiv@f3& (0+255),0,b
  1552  0015D4                     l386:
  1553                           
  1554                           ; BSR set to: 0
  1555  0015D4  0100               	movlb	0	; () banked
  1556  0015D6  90D8               	bcf	status,0,c
  1557  0015D8  377C               	rlcf	___ftdiv@f1& (0+255),f,b
  1558  0015DA  377D               	rlcf	(___ftdiv@f1+1)& (0+255),f,b
  1559  0015DC  377E               	rlcf	(___ftdiv@f1+2)& (0+255),f,b
  1560                           
  1561                           ; BSR set to: 0
  1562  0015DE  0100               	movlb	0	; () banked
  1563  0015E0  2F85               	decfsz	___ftdiv@cntr& (0+255),f,b
  1564  0015E2  D7D7               	goto	l1455
  1565                           
  1566                           ; BSR set to: 0
  1567                           
  1568                           ; BSR set to: 0
  1569  0015E4  C086  F071         	movff	___ftdiv@f3,___ftpack@arg
  1570  0015E8  C087  F072         	movff	___ftdiv@f3+1,___ftpack@arg+1
  1571  0015EC  C088  F073         	movff	___ftdiv@f3+2,___ftpack@arg+2
  1572  0015F0  C089  F074         	movff	___ftdiv@exp,___ftpack@exp
  1573  0015F4  C08A  F075         	movff	___ftdiv@sign,___ftpack@sign
  1574  0015F8  ECA7  F00B         	call	___ftpack	;wreg free
  1575  0015FC  C071  F07C         	movff	?___ftpack,?___ftdiv
  1576  001600  C072  F07D         	movff	?___ftpack+1,?___ftdiv+1
  1577  001604  C073  F07E         	movff	?___ftpack+2,?___ftdiv+2
  1578  001608  0012               	return	
  1579  00160A                     __end_of___ftdiv:
  1580                           	opt stack 0
  1581                           intcon	equ	0xFF2
  1582                           status	equ	0xFD8
  1583                           
  1584 ;; *************** function ___ftadd *****************
  1585 ;; Defined at:
  1586 ;;		line 86 in file "C:\Program Files (x86)\Microchip\xc8\v1.42\sources\common\ftadd.c"
  1587 ;; Parameters:    Size  Location     Type
  1588 ;;  f1              3   46[BANK0 ] float 
  1589 ;;  f2              3   49[BANK0 ] float 
  1590 ;; Auto vars:     Size  Location     Type
  1591 ;;  exp1            1   57[BANK0 ] unsigned char 
  1592 ;;  exp2            1   56[BANK0 ] unsigned char 
  1593 ;;  sign            1   55[BANK0 ] unsigned char 
  1594 ;; Return value:  Size  Location     Type
  1595 ;;                  3   46[BANK0 ] float 
  1596 ;; Registers used:
  1597 ;;		wreg, status,2, status,0, cstack
  1598 ;; Tracked objects:
  1599 ;;		On entry : 0/0
  1600 ;;		On exit  : 0/0
  1601 ;;		Unchanged: 0/0
  1602 ;; Data sizes:     COMRAM   BANK0   BANK1   BANK2   BANK3   BANK4   BANK5   BANK6   BANK7
  1603 ;;      Params:         0       6       0       0       0       0       0       0       0
  1604 ;;      Locals:         0       3       0       0       0       0       0       0       0
  1605 ;;      Temps:          0       3       0       0       0       0       0       0       0
  1606 ;;      Totals:         0      12       0       0       0       0       0       0       0
  1607 ;;Total ram usage:       12 bytes
  1608 ;; Hardware stack levels used:    1
  1609 ;; Hardware stack levels required when called:    6
  1610 ;; This function calls:
  1611 ;;		___ftpack
  1612 ;; This function is called by:
  1613 ;;		_start_TMR0ms
  1614 ;;		_start_TMR1ms
  1615 ;;		_start_TMR3ms
  1616 ;; This function uses a non-reentrant model
  1617 ;;
  1618                           
  1619                           	psect	text8
  1620  0010AA                     __ptext8:
  1621                           	opt stack 0
  1622  0010AA                     ___ftadd:
  1623                           	opt stack 23
  1624                           
  1625                           ;incstack = 0
  1626  0010AA  C090  F094         	movff	___ftadd@f1+2,??___ftadd
  1627  0010AE  0100               	movlb	0	; () banked
  1628  0010B0  6B95               	clrf	(??___ftadd+1)& (0+255),b
  1629  0010B2  6B96               	clrf	(??___ftadd+2)& (0+255),b
  1630  0010B4  0100               	movlb	0	; () banked
  1631  0010B6  358F               	rlcf	(___ftadd@f1+1)& (0+255),w,b
  1632  0010B8  0100               	movlb	0	; () banked
  1633  0010BA  3794               	rlcf	??___ftadd& (0+255),f,b
  1634  0010BC  E301               	bnc	u1181
  1635  0010BE  8195               	bsf	(??___ftadd+1)& (0+255),0,b
  1636  0010C0                     u1181:
  1637  0010C0  0100               	movlb	0	; () banked
  1638  0010C2  5194               	movf	??___ftadd& (0+255),w,b
  1639  0010C4  0100               	movlb	0	; () banked
  1640  0010C6  6F99               	movwf	___ftadd@exp1& (0+255),b
  1641  0010C8  C093  F094         	movff	___ftadd@f2+2,??___ftadd
  1642  0010CC  0100               	movlb	0	; () banked
  1643  0010CE  6B95               	clrf	(??___ftadd+1)& (0+255),b
  1644  0010D0  6B96               	clrf	(??___ftadd+2)& (0+255),b
  1645  0010D2  0100               	movlb	0	; () banked
  1646  0010D4  3592               	rlcf	(___ftadd@f2+1)& (0+255),w,b
  1647  0010D6  0100               	movlb	0	; () banked
  1648  0010D8  3794               	rlcf	??___ftadd& (0+255),f,b
  1649  0010DA  E301               	bnc	u1191
  1650  0010DC  8195               	bsf	(??___ftadd+1)& (0+255),0,b
  1651  0010DE                     u1191:
  1652  0010DE  0100               	movlb	0	; () banked
  1653  0010E0  5194               	movf	??___ftadd& (0+255),w,b
  1654  0010E2  0100               	movlb	0	; () banked
  1655  0010E4  6F98               	movwf	___ftadd@exp2& (0+255),b
  1656                           
  1657                           ; BSR set to: 0
  1658  0010E6  0100               	movlb	0	; () banked
  1659  0010E8  5199               	movf	___ftadd@exp1& (0+255),w,b
  1660  0010EA  0100               	movlb	0	; () banked
  1661  0010EC  B4D8               	btfsc	status,2,c
  1662  0010EE  D011               	goto	l351
  1663                           
  1664                           ; BSR set to: 0
  1665  0010F0  0100               	movlb	0	; () banked
  1666  0010F2  5198               	movf	___ftadd@exp2& (0+255),w,b
  1667  0010F4  0100               	movlb	0	; () banked
  1668  0010F6  5D99               	subwf	___ftadd@exp1& (0+255),w,b
  1669  0010F8  B0D8               	btfsc	status,0,c
  1670  0010FA  D012               	goto	l1361
  1671                           
  1672                           ; BSR set to: 0
  1673  0010FC  0100               	movlb	0	; () banked
  1674  0010FE  5199               	movf	___ftadd@exp1& (0+255),w,b
  1675  001100  0800               	sublw	0
  1676  001102  0100               	movlb	0	; () banked
  1677  001104  2598               	addwf	___ftadd@exp2& (0+255),w,b
  1678  001106  0100               	movlb	0	; () banked
  1679  001108  6F94               	movwf	??___ftadd& (0+255),b
  1680  00110A  0E18               	movlw	24
  1681  00110C  0100               	movlb	0	; () banked
  1682  00110E  6594               	cpfsgt	??___ftadd& (0+255),b
  1683  001110  D007               	goto	l1361
  1684  001112                     l351:
  1685                           
  1686                           ; BSR set to: 0
  1687  001112  C091  F08E         	movff	___ftadd@f2,?___ftadd
  1688  001116  C092  F08F         	movff	___ftadd@f2+1,?___ftadd+1
  1689  00111A  C093  F090         	movff	___ftadd@f2+2,?___ftadd+2
  1690  00111E  0012               	return	
  1691  001120                     l1361:
  1692                           
  1693                           ; BSR set to: 0
  1694  001120  0100               	movlb	0	; () banked
  1695  001122  5198               	movf	___ftadd@exp2& (0+255),w,b
  1696  001124  0100               	movlb	0	; () banked
  1697  001126  B4D8               	btfsc	status,2,c
  1698  001128  D011               	goto	l355
  1699                           
  1700                           ; BSR set to: 0
  1701  00112A  0100               	movlb	0	; () banked
  1702  00112C  5199               	movf	___ftadd@exp1& (0+255),w,b
  1703  00112E  0100               	movlb	0	; () banked
  1704  001130  5D98               	subwf	___ftadd@exp2& (0+255),w,b
  1705  001132  B0D8               	btfsc	status,0,c
  1706  001134  D012               	goto	l1367
  1707                           
  1708                           ; BSR set to: 0
  1709  001136  0100               	movlb	0	; () banked
  1710  001138  5198               	movf	___ftadd@exp2& (0+255),w,b
  1711  00113A  0800               	sublw	0
  1712  00113C  0100               	movlb	0	; () banked
  1713  00113E  2599               	addwf	___ftadd@exp1& (0+255),w,b
  1714  001140  0100               	movlb	0	; () banked
  1715  001142  6F94               	movwf	??___ftadd& (0+255),b
  1716  001144  0E18               	movlw	24
  1717  001146  0100               	movlb	0	; () banked
  1718  001148  6594               	cpfsgt	??___ftadd& (0+255),b
  1719  00114A  D007               	goto	l1367
  1720  00114C                     l355:
  1721                           
  1722                           ; BSR set to: 0
  1723  00114C  C08E  F08E         	movff	___ftadd@f1,?___ftadd
  1724  001150  C08F  F08F         	movff	___ftadd@f1+1,?___ftadd+1
  1725  001154  C090  F090         	movff	___ftadd@f1+2,?___ftadd+2
  1726  001158  0012               	return	
  1727  00115A                     l1367:
  1728                           
  1729                           ; BSR set to: 0
  1730  00115A  0E06               	movlw	6
  1731  00115C  0100               	movlb	0	; () banked
  1732  00115E  6F97               	movwf	___ftadd@sign& (0+255),b
  1733                           
  1734                           ; BSR set to: 0
  1735  001160  0100               	movlb	0	; () banked
  1736  001162  AF90               	btfss	(___ftadd@f1+2)& (0+255),7,b
  1737  001164  D002               	goto	l1373
  1738                           
  1739                           ; BSR set to: 0
  1740  001166  0100               	movlb	0	; () banked
  1741  001168  8F97               	bsf	___ftadd@sign& (0+255),7,b
  1742  00116A                     l1373:
  1743                           
  1744                           ; BSR set to: 0
  1745  00116A  0100               	movlb	0	; () banked
  1746  00116C  AF93               	btfss	(___ftadd@f2+2)& (0+255),7,b
  1747  00116E  D002               	goto	l357
  1748                           
  1749                           ; BSR set to: 0
  1750  001170  0100               	movlb	0	; () banked
  1751  001172  8D97               	bsf	___ftadd@sign& (0+255),6,b
  1752  001174                     l357:
  1753                           
  1754                           ; BSR set to: 0
  1755  001174  0100               	movlb	0	; () banked
  1756  001176  8F8F               	bsf	(___ftadd@f1+1)& (0+255),7,b
  1757                           
  1758                           ; BSR set to: 0
  1759  001178  0EFF               	movlw	255
  1760  00117A  0100               	movlb	0	; () banked
  1761  00117C  178E               	andwf	___ftadd@f1& (0+255),f,b
  1762  00117E  0EFF               	movlw	255
  1763  001180  0100               	movlb	0	; () banked
  1764  001182  178F               	andwf	(___ftadd@f1+1)& (0+255),f,b
  1765  001184  0E00               	movlw	0
  1766  001186  0100               	movlb	0	; () banked
  1767  001188  1790               	andwf	(___ftadd@f1+2)& (0+255),f,b
  1768  00118A  0100               	movlb	0	; () banked
  1769  00118C  8F92               	bsf	(___ftadd@f2+1)& (0+255),7,b
  1770                           
  1771                           ; BSR set to: 0
  1772  00118E  0EFF               	movlw	255
  1773  001190  0100               	movlb	0	; () banked
  1774  001192  1791               	andwf	___ftadd@f2& (0+255),f,b
  1775  001194  0EFF               	movlw	255
  1776  001196  0100               	movlb	0	; () banked
  1777  001198  1792               	andwf	(___ftadd@f2+1)& (0+255),f,b
  1778  00119A  0E00               	movlw	0
  1779  00119C  0100               	movlb	0	; () banked
  1780  00119E  1793               	andwf	(___ftadd@f2+2)& (0+255),f,b
  1781                           
  1782                           ; BSR set to: 0
  1783  0011A0  0100               	movlb	0	; () banked
  1784  0011A2  5198               	movf	___ftadd@exp2& (0+255),w,b
  1785  0011A4  0100               	movlb	0	; () banked
  1786  0011A6  5D99               	subwf	___ftadd@exp1& (0+255),w,b
  1787  0011A8  B0D8               	btfsc	status,0,c
  1788  0011AA  D025               	goto	l1393
  1789  0011AC                     l1383:
  1790                           
  1791                           ; BSR set to: 0
  1792  0011AC  0100               	movlb	0	; () banked
  1793  0011AE  90D8               	bcf	status,0,c
  1794  0011B0  3791               	rlcf	___ftadd@f2& (0+255),f,b
  1795  0011B2  3792               	rlcf	(___ftadd@f2+1)& (0+255),f,b
  1796  0011B4  3793               	rlcf	(___ftadd@f2+2)& (0+255),f,b
  1797  0011B6  0100               	movlb	0	; () banked
  1798  0011B8  0798               	decf	___ftadd@exp2& (0+255),f,b
  1799                           
  1800                           ; BSR set to: 0
  1801  0011BA  0100               	movlb	0	; () banked
  1802  0011BC  5199               	movf	___ftadd@exp1& (0+255),w,b
  1803  0011BE  0100               	movlb	0	; () banked
  1804  0011C0  1998               	xorwf	___ftadd@exp2& (0+255),w,b
  1805  0011C2  B4D8               	btfsc	status,2,c
  1806  0011C4  D011               	goto	l1391
  1807                           
  1808                           ; BSR set to: 0
  1809  0011C6  0100               	movlb	0	; () banked
  1810  0011C8  0797               	decf	___ftadd@sign& (0+255),f,b
  1811  0011CA  C097  F094         	movff	___ftadd@sign,??___ftadd
  1812  0011CE  0E07               	movlw	7
  1813  0011D0  0100               	movlb	0	; () banked
  1814  0011D2  1794               	andwf	??___ftadd& (0+255),f,b
  1815  0011D4  B4D8               	btfsc	status,2,c
  1816  0011D6  D008               	goto	l1391
  1817  0011D8  D7E9               	goto	l1383
  1818  0011DA                     l1389:
  1819                           
  1820                           ; BSR set to: 0
  1821  0011DA  0100               	movlb	0	; () banked
  1822  0011DC  90D8               	bcf	status,0,c
  1823  0011DE  3390               	rrcf	(___ftadd@f1+2)& (0+255),f,b
  1824  0011E0  338F               	rrcf	(___ftadd@f1+1)& (0+255),f,b
  1825  0011E2  338E               	rrcf	___ftadd@f1& (0+255),f,b
  1826  0011E4  0100               	movlb	0	; () banked
  1827  0011E6  2B99               	incf	___ftadd@exp1& (0+255),f,b
  1828  0011E8                     l1391:
  1829                           
  1830                           ; BSR set to: 0
  1831  0011E8  0100               	movlb	0	; () banked
  1832  0011EA  5198               	movf	___ftadd@exp2& (0+255),w,b
  1833  0011EC  0100               	movlb	0	; () banked
  1834  0011EE  1999               	xorwf	___ftadd@exp1& (0+255),w,b
  1835  0011F0  B4D8               	btfsc	status,2,c
  1836  0011F2  D02B               	goto	l366
  1837  0011F4  D7F2               	goto	l1389
  1838  0011F6                     l1393:
  1839                           
  1840                           ; BSR set to: 0
  1841  0011F6  0100               	movlb	0	; () banked
  1842  0011F8  5199               	movf	___ftadd@exp1& (0+255),w,b
  1843  0011FA  0100               	movlb	0	; () banked
  1844  0011FC  5D98               	subwf	___ftadd@exp2& (0+255),w,b
  1845  0011FE  B0D8               	btfsc	status,0,c
  1846  001200  D024               	goto	l366
  1847  001202                     l1395:
  1848                           
  1849                           ; BSR set to: 0
  1850  001202  0100               	movlb	0	; () banked
  1851  001204  90D8               	bcf	status,0,c
  1852  001206  378E               	rlcf	___ftadd@f1& (0+255),f,b
  1853  001208  378F               	rlcf	(___ftadd@f1+1)& (0+255),f,b
  1854  00120A  3790               	rlcf	(___ftadd@f1+2)& (0+255),f,b
  1855  00120C  0100               	movlb	0	; () banked
  1856  00120E  0799               	decf	___ftadd@exp1& (0+255),f,b
  1857                           
  1858                           ; BSR set to: 0
  1859  001210  0100               	movlb	0	; () banked
  1860  001212  5199               	movf	___ftadd@exp1& (0+255),w,b
  1861  001214  0100               	movlb	0	; () banked
  1862  001216  1998               	xorwf	___ftadd@exp2& (0+255),w,b
  1863  001218  B4D8               	btfsc	status,2,c
  1864  00121A  D011               	goto	l1403
  1865                           
  1866                           ; BSR set to: 0
  1867  00121C  0100               	movlb	0	; () banked
  1868  00121E  0797               	decf	___ftadd@sign& (0+255),f,b
  1869  001220  C097  F094         	movff	___ftadd@sign,??___ftadd
  1870  001224  0E07               	movlw	7
  1871  001226  0100               	movlb	0	; () banked
  1872  001228  1794               	andwf	??___ftadd& (0+255),f,b
  1873  00122A  B4D8               	btfsc	status,2,c
  1874  00122C  D008               	goto	l1403
  1875  00122E  D7E9               	goto	l1395
  1876  001230                     l1401:
  1877                           
  1878                           ; BSR set to: 0
  1879  001230  0100               	movlb	0	; () banked
  1880  001232  90D8               	bcf	status,0,c
  1881  001234  3393               	rrcf	(___ftadd@f2+2)& (0+255),f,b
  1882  001236  3392               	rrcf	(___ftadd@f2+1)& (0+255),f,b
  1883  001238  3391               	rrcf	___ftadd@f2& (0+255),f,b
  1884  00123A  0100               	movlb	0	; () banked
  1885  00123C  2B98               	incf	___ftadd@exp2& (0+255),f,b
  1886  00123E                     l1403:
  1887                           
  1888                           ; BSR set to: 0
  1889  00123E  0100               	movlb	0	; () banked
  1890  001240  5198               	movf	___ftadd@exp2& (0+255),w,b
  1891  001242  0100               	movlb	0	; () banked
  1892  001244  1999               	xorwf	___ftadd@exp1& (0+255),w,b
  1893  001246  A4D8               	btfss	status,2,c
  1894  001248  D7F3               	goto	l1401
  1895  00124A                     l366:
  1896                           
  1897                           ; BSR set to: 0
  1898  00124A  0100               	movlb	0	; () banked
  1899  00124C  AF97               	btfss	___ftadd@sign& (0+255),7,b
  1900  00124E  D012               	goto	l375
  1901                           
  1902                           ; BSR set to: 0
  1903  001250  0EFF               	movlw	255
  1904  001252  0100               	movlb	0	; () banked
  1905  001254  1B8E               	xorwf	___ftadd@f1& (0+255),f,b
  1906  001256  0EFF               	movlw	255
  1907  001258  0100               	movlb	0	; () banked
  1908  00125A  1B8F               	xorwf	(___ftadd@f1+1)& (0+255),f,b
  1909  00125C  0EFF               	movlw	255
  1910  00125E  0100               	movlb	0	; () banked
  1911  001260  1B90               	xorwf	(___ftadd@f1+2)& (0+255),f,b
  1912  001262  0E01               	movlw	1
  1913  001264  0100               	movlb	0	; () banked
  1914  001266  278E               	addwf	___ftadd@f1& (0+255),f,b
  1915  001268  0E00               	movlw	0
  1916  00126A  0100               	movlb	0	; () banked
  1917  00126C  238F               	addwfc	(___ftadd@f1+1)& (0+255),f,b
  1918  00126E  0E00               	movlw	0
  1919  001270  0100               	movlb	0	; () banked
  1920  001272  2390               	addwfc	(___ftadd@f1+2)& (0+255),f,b
  1921  001274                     l375:
  1922                           
  1923                           ; BSR set to: 0
  1924  001274  0100               	movlb	0	; () banked
  1925  001276  AD97               	btfss	___ftadd@sign& (0+255),6,b
  1926  001278  D012               	goto	l1409
  1927                           
  1928                           ; BSR set to: 0
  1929  00127A  0EFF               	movlw	255
  1930  00127C  0100               	movlb	0	; () banked
  1931  00127E  1B91               	xorwf	___ftadd@f2& (0+255),f,b
  1932  001280  0EFF               	movlw	255
  1933  001282  0100               	movlb	0	; () banked
  1934  001284  1B92               	xorwf	(___ftadd@f2+1)& (0+255),f,b
  1935  001286  0EFF               	movlw	255
  1936  001288  0100               	movlb	0	; () banked
  1937  00128A  1B93               	xorwf	(___ftadd@f2+2)& (0+255),f,b
  1938  00128C  0E01               	movlw	1
  1939  00128E  0100               	movlb	0	; () banked
  1940  001290  2791               	addwf	___ftadd@f2& (0+255),f,b
  1941  001292  0E00               	movlw	0
  1942  001294  0100               	movlb	0	; () banked
  1943  001296  2392               	addwfc	(___ftadd@f2+1)& (0+255),f,b
  1944  001298  0E00               	movlw	0
  1945  00129A  0100               	movlb	0	; () banked
  1946  00129C  2393               	addwfc	(___ftadd@f2+2)& (0+255),f,b
  1947  00129E                     l1409:
  1948                           
  1949                           ; BSR set to: 0
  1950  00129E  0E00               	movlw	0
  1951  0012A0  0100               	movlb	0	; () banked
  1952  0012A2  6F97               	movwf	___ftadd@sign& (0+255),b
  1953                           
  1954                           ; BSR set to: 0
  1955  0012A4  0100               	movlb	0	; () banked
  1956  0012A6  518E               	movf	___ftadd@f1& (0+255),w,b
  1957  0012A8  0100               	movlb	0	; () banked
  1958  0012AA  2791               	addwf	___ftadd@f2& (0+255),f,b
  1959  0012AC  0100               	movlb	0	; () banked
  1960  0012AE  518F               	movf	(___ftadd@f1+1)& (0+255),w,b
  1961  0012B0  0100               	movlb	0	; () banked
  1962  0012B2  2392               	addwfc	(___ftadd@f2+1)& (0+255),f,b
  1963  0012B4  0100               	movlb	0	; () banked
  1964  0012B6  5190               	movf	(___ftadd@f1+2)& (0+255),w,b
  1965  0012B8  0100               	movlb	0	; () banked
  1966  0012BA  2393               	addwfc	(___ftadd@f2+2)& (0+255),f,b
  1967                           
  1968                           ; BSR set to: 0
  1969  0012BC  0100               	movlb	0	; () banked
  1970  0012BE  AF93               	btfss	(___ftadd@f2+2)& (0+255),7,b
  1971  0012C0  D015               	goto	l1419
  1972                           
  1973                           ; BSR set to: 0
  1974  0012C2  0EFF               	movlw	255
  1975  0012C4  0100               	movlb	0	; () banked
  1976  0012C6  1B91               	xorwf	___ftadd@f2& (0+255),f,b
  1977  0012C8  0EFF               	movlw	255
  1978  0012CA  0100               	movlb	0	; () banked
  1979  0012CC  1B92               	xorwf	(___ftadd@f2+1)& (0+255),f,b
  1980  0012CE  0EFF               	movlw	255
  1981  0012D0  0100               	movlb	0	; () banked
  1982  0012D2  1B93               	xorwf	(___ftadd@f2+2)& (0+255),f,b
  1983  0012D4  0E01               	movlw	1
  1984  0012D6  0100               	movlb	0	; () banked
  1985  0012D8  2791               	addwf	___ftadd@f2& (0+255),f,b
  1986  0012DA  0E00               	movlw	0
  1987  0012DC  0100               	movlb	0	; () banked
  1988  0012DE  2392               	addwfc	(___ftadd@f2+1)& (0+255),f,b
  1989  0012E0  0E00               	movlw	0
  1990  0012E2  0100               	movlb	0	; () banked
  1991  0012E4  2393               	addwfc	(___ftadd@f2+2)& (0+255),f,b
  1992                           
  1993                           ; BSR set to: 0
  1994  0012E6  0E01               	movlw	1
  1995  0012E8  0100               	movlb	0	; () banked
  1996  0012EA  6F97               	movwf	___ftadd@sign& (0+255),b
  1997  0012EC                     l1419:
  1998                           
  1999                           ; BSR set to: 0
  2000  0012EC  C091  F071         	movff	___ftadd@f2,___ftpack@arg
  2001  0012F0  C092  F072         	movff	___ftadd@f2+1,___ftpack@arg+1
  2002  0012F4  C093  F073         	movff	___ftadd@f2+2,___ftpack@arg+2
  2003  0012F8  C099  F074         	movff	___ftadd@exp1,___ftpack@exp
  2004  0012FC  C097  F075         	movff	___ftadd@sign,___ftpack@sign
  2005  001300  ECA7  F00B         	call	___ftpack	;wreg free
  2006  001304  C071  F08E         	movff	?___ftpack,?___ftadd
  2007  001308  C072  F08F         	movff	?___ftpack+1,?___ftadd+1
  2008  00130C  C073  F090         	movff	?___ftpack+2,?___ftadd+2
  2009  001310  0012               	return	
  2010  001312                     __end_of___ftadd:
  2011                           	opt stack 0
  2012                           intcon	equ	0xFF2
  2013                           status	equ	0xFD8
  2014                           
  2015 ;; *************** function ___ftpack *****************
  2016 ;; Defined at:
  2017 ;;		line 62 in file "C:\Program Files (x86)\Microchip\xc8\v1.42\sources\common\float.c"
  2018 ;; Parameters:    Size  Location     Type
  2019 ;;  arg             3   17[BANK0 ] unsigned um
  2020 ;;  exp             1   20[BANK0 ] unsigned char 
  2021 ;;  sign            1   21[BANK0 ] unsigned char 
  2022 ;; Auto vars:     Size  Location     Type
  2023 ;;		None
  2024 ;; Return value:  Size  Location     Type
  2025 ;;                  3   17[BANK0 ] float 
  2026 ;; Registers used:
  2027 ;;		wreg, status,2, status,0
  2028 ;; Tracked objects:
  2029 ;;		On entry : 0/0
  2030 ;;		On exit  : 0/0
  2031 ;;		Unchanged: 0/0
  2032 ;; Data sizes:     COMRAM   BANK0   BANK1   BANK2   BANK3   BANK4   BANK5   BANK6   BANK7
  2033 ;;      Params:         0       5       0       0       0       0       0       0       0
  2034 ;;      Locals:         0       0       0       0       0       0       0       0       0
  2035 ;;      Temps:          0       3       0       0       0       0       0       0       0
  2036 ;;      Totals:         0       8       0       0       0       0       0       0       0
  2037 ;;Total ram usage:        8 bytes
  2038 ;; Hardware stack levels used:    1
  2039 ;; Hardware stack levels required when called:    5
  2040 ;; This function calls:
  2041 ;;		Nothing
  2042 ;; This function is called by:
  2043 ;;		___ftadd
  2044 ;;		___ftdiv
  2045 ;;		___lwtoft
  2046 ;; This function uses a non-reentrant model
  2047 ;;
  2048                           
  2049                           	psect	text9
  2050  00174E                     __ptext9:
  2051                           	opt stack 0
  2052  00174E                     ___ftpack:
  2053                           	opt stack 23
  2054                           
  2055                           ;incstack = 0
  2056  00174E  0100               	movlb	0	; () banked
  2057  001750  5174               	movf	___ftpack@exp& (0+255),w,b
  2058  001752  0100               	movlb	0	; () banked
  2059  001754  B4D8               	btfsc	status,2,c
  2060  001756  D008               	goto	l1285
  2061                           
  2062                           ; BSR set to: 0
  2063  001758  0100               	movlb	0	; () banked
  2064  00175A  5171               	movf	___ftpack@arg& (0+255),w,b
  2065  00175C  0100               	movlb	0	; () banked
  2066  00175E  1172               	iorwf	(___ftpack@arg+1)& (0+255),w,b
  2067  001760  0100               	movlb	0	; () banked
  2068  001762  1173               	iorwf	(___ftpack@arg+2)& (0+255),w,b
  2069  001764  A4D8               	btfss	status,2,c
  2070  001766  D011               	goto	l1291
  2071  001768                     l1285:
  2072                           
  2073                           ; BSR set to: 0
  2074  001768  0E00               	movlw	0
  2075  00176A  0100               	movlb	0	; () banked
  2076  00176C  6F71               	movwf	?___ftpack& (0+255),b
  2077  00176E  0E00               	movlw	0
  2078  001770  0100               	movlb	0	; () banked
  2079  001772  6F72               	movwf	(?___ftpack+1)& (0+255),b
  2080  001774  0E00               	movlw	0
  2081  001776  0100               	movlb	0	; () banked
  2082  001778  6F73               	movwf	(?___ftpack+2)& (0+255),b
  2083                           
  2084                           ; BSR set to: 0
  2085  00177A  0012               	return	
  2086  00177C                     l1289:
  2087                           
  2088                           ; BSR set to: 0
  2089  00177C  0100               	movlb	0	; () banked
  2090  00177E  2B74               	incf	___ftpack@exp& (0+255),f,b
  2091  001780  0100               	movlb	0	; () banked
  2092  001782  90D8               	bcf	status,0,c
  2093  001784  3373               	rrcf	(___ftpack@arg+2)& (0+255),f,b
  2094  001786  3372               	rrcf	(___ftpack@arg+1)& (0+255),f,b
  2095  001788  3371               	rrcf	___ftpack@arg& (0+255),f,b
  2096  00178A                     l1291:
  2097                           
  2098                           ; BSR set to: 0
  2099  00178A  0E00               	movlw	0
  2100  00178C  0100               	movlb	0	; () banked
  2101  00178E  1571               	andwf	___ftpack@arg& (0+255),w,b
  2102  001790  0100               	movlb	0	; () banked
  2103  001792  6F76               	movwf	??___ftpack& (0+255),b
  2104  001794  0E00               	movlw	0
  2105  001796  0100               	movlb	0	; () banked
  2106  001798  1572               	andwf	(___ftpack@arg+1)& (0+255),w,b
  2107  00179A  0100               	movlb	0	; () banked
  2108  00179C  6F77               	movwf	(??___ftpack+1)& (0+255),b
  2109  00179E  0EFE               	movlw	254
  2110  0017A0  0100               	movlb	0	; () banked
  2111  0017A2  1573               	andwf	(___ftpack@arg+2)& (0+255),w,b
  2112  0017A4  0100               	movlb	0	; () banked
  2113  0017A6  6F78               	movwf	(??___ftpack+2)& (0+255),b
  2114  0017A8  0100               	movlb	0	; () banked
  2115  0017AA  5176               	movf	??___ftpack& (0+255),w,b
  2116  0017AC  0100               	movlb	0	; () banked
  2117  0017AE  1177               	iorwf	(??___ftpack+1)& (0+255),w,b
  2118  0017B0  0100               	movlb	0	; () banked
  2119  0017B2  1178               	iorwf	(??___ftpack+2)& (0+255),w,b
  2120  0017B4  B4D8               	btfsc	status,2,c
  2121  0017B6  D011               	goto	l1297
  2122  0017B8  D7E1               	goto	l1289
  2123  0017BA                     l1293:
  2124                           
  2125                           ; BSR set to: 0
  2126  0017BA  0100               	movlb	0	; () banked
  2127  0017BC  2B74               	incf	___ftpack@exp& (0+255),f,b
  2128                           
  2129                           ; BSR set to: 0
  2130  0017BE  0E01               	movlw	1
  2131  0017C0  0100               	movlb	0	; () banked
  2132  0017C2  2771               	addwf	___ftpack@arg& (0+255),f,b
  2133  0017C4  0E00               	movlw	0
  2134  0017C6  0100               	movlb	0	; () banked
  2135  0017C8  2372               	addwfc	(___ftpack@arg+1)& (0+255),f,b
  2136  0017CA  0E00               	movlw	0
  2137  0017CC  0100               	movlb	0	; () banked
  2138  0017CE  2373               	addwfc	(___ftpack@arg+2)& (0+255),f,b
  2139  0017D0  0100               	movlb	0	; () banked
  2140  0017D2  90D8               	bcf	status,0,c
  2141  0017D4  3373               	rrcf	(___ftpack@arg+2)& (0+255),f,b
  2142  0017D6  3372               	rrcf	(___ftpack@arg+1)& (0+255),f,b
  2143  0017D8  3371               	rrcf	___ftpack@arg& (0+255),f,b
  2144  0017DA                     l1297:
  2145                           
  2146                           ; BSR set to: 0
  2147  0017DA  0E00               	movlw	0
  2148  0017DC  0100               	movlb	0	; () banked
  2149  0017DE  1571               	andwf	___ftpack@arg& (0+255),w,b
  2150  0017E0  0100               	movlb	0	; () banked
  2151  0017E2  6F76               	movwf	??___ftpack& (0+255),b
  2152  0017E4  0E00               	movlw	0
  2153  0017E6  0100               	movlb	0	; () banked
  2154  0017E8  1572               	andwf	(___ftpack@arg+1)& (0+255),w,b
  2155  0017EA  0100               	movlb	0	; () banked
  2156  0017EC  6F77               	movwf	(??___ftpack+1)& (0+255),b
  2157  0017EE  0EFF               	movlw	255
  2158  0017F0  0100               	movlb	0	; () banked
  2159  0017F2  1573               	andwf	(___ftpack@arg+2)& (0+255),w,b
  2160  0017F4  0100               	movlb	0	; () banked
  2161  0017F6  6F78               	movwf	(??___ftpack+2)& (0+255),b
  2162  0017F8  0100               	movlb	0	; () banked
  2163  0017FA  5176               	movf	??___ftpack& (0+255),w,b
  2164  0017FC  0100               	movlb	0	; () banked
  2165  0017FE  1177               	iorwf	(??___ftpack+1)& (0+255),w,b
  2166  001800  0100               	movlb	0	; () banked
  2167  001802  1178               	iorwf	(??___ftpack+2)& (0+255),w,b
  2168  001804  B4D8               	btfsc	status,2,c
  2169  001806  D008               	goto	l1301
  2170  001808  D7D8               	goto	l1293
  2171  00180A                     l1299:
  2172                           
  2173                           ; BSR set to: 0
  2174  00180A  0100               	movlb	0	; () banked
  2175  00180C  0774               	decf	___ftpack@exp& (0+255),f,b
  2176  00180E  0100               	movlb	0	; () banked
  2177  001810  90D8               	bcf	status,0,c
  2178  001812  3771               	rlcf	___ftpack@arg& (0+255),f,b
  2179  001814  3772               	rlcf	(___ftpack@arg+1)& (0+255),f,b
  2180  001816  3773               	rlcf	(___ftpack@arg+2)& (0+255),f,b
  2181  001818                     l1301:
  2182                           
  2183                           ; BSR set to: 0
  2184  001818  0100               	movlb	0	; () banked
  2185  00181A  BF72               	btfsc	(___ftpack@arg+1)& (0+255),7,b
  2186  00181C  D004               	goto	l328
  2187                           
  2188                           ; BSR set to: 0
  2189  00181E  0E02               	movlw	2
  2190  001820  0100               	movlb	0	; () banked
  2191  001822  6174               	cpfslt	___ftpack@exp& (0+255),b
  2192  001824  D7F2               	goto	l1299
  2193  001826                     l328:
  2194                           
  2195                           ; BSR set to: 0
  2196  001826  0100               	movlb	0	; () banked
  2197  001828  B174               	btfsc	___ftpack@exp& (0+255),0,b
  2198  00182A  D002               	goto	l1307
  2199                           
  2200                           ; BSR set to: 0
  2201  00182C  0100               	movlb	0	; () banked
  2202  00182E  9F72               	bcf	(___ftpack@arg+1)& (0+255),7,b
  2203  001830                     l1307:
  2204                           
  2205                           ; BSR set to: 0
  2206  001830  0100               	movlb	0	; () banked
  2207  001832  90D8               	bcf	status,0,c
  2208  001834  3374               	rrcf	___ftpack@exp& (0+255),f,b
  2209  001836  0100               	movlb	0	; () banked
  2210  001838  5174               	movf	___ftpack@exp& (0+255),w,b
  2211  00183A  0100               	movlb	0	; () banked
  2212  00183C  1373               	iorwf	(___ftpack@arg+2)& (0+255),f,b
  2213                           
  2214                           ; BSR set to: 0
  2215  00183E  0100               	movlb	0	; () banked
  2216  001840  5175               	movf	___ftpack@sign& (0+255),w,b
  2217  001842  0100               	movlb	0	; () banked
  2218  001844  B4D8               	btfsc	status,2,c
  2219  001846  D002               	goto	l1313
  2220                           
  2221                           ; BSR set to: 0
  2222  001848  0100               	movlb	0	; () banked
  2223  00184A  8F73               	bsf	(___ftpack@arg+2)& (0+255),7,b
  2224  00184C                     l1313:
  2225                           
  2226                           ; BSR set to: 0
  2227  00184C  C071  F071         	movff	___ftpack@arg,?___ftpack
  2228  001850  C072  F072         	movff	___ftpack@arg+1,?___ftpack+1
  2229  001854  C073  F073         	movff	___ftpack@arg+2,?___ftpack+2
  2230  001858  0012               	return	
  2231  00185A                     __end_of___ftpack:
  2232                           	opt stack 0
  2233                           intcon	equ	0xFF2
  2234                           status	equ	0xFD8
  2235                           
  2236 ;; *************** function _config_TMR3 *****************
  2237 ;; Defined at:
  2238 ;;		line 195 in file "timers.h"
  2239 ;; Parameters:    Size  Location     Type
  2240 ;;  check_flag_m    1    wreg     unsigned char 
  2241 ;;  clock_source    1   17[BANK0 ] unsigned char 
  2242 ;; Auto vars:     Size  Location     Type
  2243 ;;  check_flag_m    1   18[BANK0 ] unsigned char 
  2244 ;; Return value:  Size  Location     Type
  2245 ;;                  1    wreg      void 
  2246 ;; Registers used:
  2247 ;;		wreg, status,2
  2248 ;; Tracked objects:
  2249 ;;		On entry : 0/0
  2250 ;;		On exit  : 0/0
  2251 ;;		Unchanged: 0/0
  2252 ;; Data sizes:     COMRAM   BANK0   BANK1   BANK2   BANK3   BANK4   BANK5   BANK6   BANK7
  2253 ;;      Params:         0       1       0       0       0       0       0       0       0
  2254 ;;      Locals:         0       1       0       0       0       0       0       0       0
  2255 ;;      Temps:          0       0       0       0       0       0       0       0       0
  2256 ;;      Totals:         0       2       0       0       0       0       0       0       0
  2257 ;;Total ram usage:        2 bytes
  2258 ;; Hardware stack levels used:    1
  2259 ;; Hardware stack levels required when called:    5
  2260 ;; This function calls:
  2261 ;;		Nothing
  2262 ;; This function is called by:
  2263 ;;		_main
  2264 ;; This function uses a non-reentrant model
  2265 ;;
  2266                           
  2267                           	psect	text10
  2268  001FB8                     __ptext10:
  2269                           	opt stack 0
  2270  001FB8                     _config_TMR3:
  2271                           	opt stack 25
  2272                           
  2273                           ; BSR set to: 0
  2274                           ;incstack = 0
  2275                           ;config_TMR3@check_flag_method stored from wreg
  2276  001FB8  0100               	movlb	0	; () banked
  2277  001FBA  6F72               	movwf	config_TMR3@check_flag_method& (0+255),b
  2278                           
  2279                           ;timers.h: 196: if (check_flag_method){
  2280  001FBC  0100               	movlb	0	; () banked
  2281  001FBE  5172               	movf	config_TMR3@check_flag_method& (0+255),w,b
  2282  001FC0  0100               	movlb	0	; () banked
  2283  001FC2  B4D8               	btfsc	status,2,c
  2284  001FC4  D002               	goto	l73
  2285                           
  2286                           ; BSR set to: 0
  2287                           ;timers.h: 197: PIE2bits.TMR3IE = 1;
  2288  001FC6  82A0               	bsf	4000,1,c	;volatile
  2289                           
  2290                           ;timers.h: 198: }
  2291  001FC8  D001               	goto	l1741
  2292  001FCA                     l73:
  2293                           
  2294                           ; BSR set to: 0
  2295                           ;timers.h: 199: else{
  2296                           ;timers.h: 200: PIE2bits.TMR3IE = 0;
  2297  001FCA  92A0               	bcf	4000,1,c	;volatile
  2298  001FCC                     l1741:
  2299                           
  2300                           ; BSR set to: 0
  2301                           ;timers.h: 201: }
  2302                           ;timers.h: 233: T3CON = 0b00110010;
  2303  001FCC  0E32               	movlw	50
  2304  001FCE  6EB1               	movwf	4017,c	;volatile
  2305                           
  2306                           ; BSR set to: 0
  2307                           ;timers.h: 235: if (clock_source){
  2308  001FD0  0100               	movlb	0	; () banked
  2309  001FD2  5171               	movf	config_TMR3@clock_source& (0+255),w,b
  2310  001FD4  0100               	movlb	0	; () banked
  2311  001FD6  B4D8               	btfsc	status,2,c
  2312  001FD8  D003               	goto	l75
  2313                           
  2314                           ; BSR set to: 0
  2315                           ;timers.h: 236: T3CONbits.TMR3CS1 = 1;
  2316  001FDA  8EB1               	bsf	4017,7,c	;volatile
  2317                           
  2318                           ;timers.h: 237: T3CONbits.TMR3CS0 = 0;
  2319  001FDC  9CB1               	bcf	4017,6,c	;volatile
  2320                           
  2321                           ;timers.h: 238: }
  2322  001FDE  0012               	return	
  2323  001FE0                     l75:
  2324                           
  2325                           ; BSR set to: 0
  2326                           ;timers.h: 239: else{
  2327                           ;timers.h: 240: T3CONbits.TMR3CS1 = 0;
  2328  001FE0  9EB1               	bcf	4017,7,c	;volatile
  2329                           
  2330                           ;timers.h: 241: T3CONbits.TMR3CS0 = 0;
  2331  001FE2  9CB1               	bcf	4017,6,c	;volatile
  2332  001FE4  0012               	return	
  2333  001FE6                     __end_of_config_TMR3:
  2334                           	opt stack 0
  2335                           intcon	equ	0xFF2
  2336                           status	equ	0xFD8
  2337                           
  2338 ;; *************** function _config_TMR1 *****************
  2339 ;; Defined at:
  2340 ;;		line 125 in file "timers.h"
  2341 ;; Parameters:    Size  Location     Type
  2342 ;;  check_flag_m    1    wreg     unsigned char 
  2343 ;;  clock_source    1   17[BANK0 ] unsigned char 
  2344 ;; Auto vars:     Size  Location     Type
  2345 ;;  check_flag_m    1   18[BANK0 ] unsigned char 
  2346 ;; Return value:  Size  Location     Type
  2347 ;;                  1    wreg      void 
  2348 ;; Registers used:
  2349 ;;		wreg, status,2
  2350 ;; Tracked objects:
  2351 ;;		On entry : 0/0
  2352 ;;		On exit  : 0/0
  2353 ;;		Unchanged: 0/0
  2354 ;; Data sizes:     COMRAM   BANK0   BANK1   BANK2   BANK3   BANK4   BANK5   BANK6   BANK7
  2355 ;;      Params:         0       1       0       0       0       0       0       0       0
  2356 ;;      Locals:         0       1       0       0       0       0       0       0       0
  2357 ;;      Temps:          0       0       0       0       0       0       0       0       0
  2358 ;;      Totals:         0       2       0       0       0       0       0       0       0
  2359 ;;Total ram usage:        2 bytes
  2360 ;; Hardware stack levels used:    1
  2361 ;; Hardware stack levels required when called:    5
  2362 ;; This function calls:
  2363 ;;		Nothing
  2364 ;; This function is called by:
  2365 ;;		_main
  2366 ;; This function uses a non-reentrant model
  2367 ;;
  2368                           
  2369                           	psect	text11
  2370  001FE6                     __ptext11:
  2371                           	opt stack 0
  2372  001FE6                     _config_TMR1:
  2373                           	opt stack 25
  2374                           
  2375                           ; BSR set to: 0
  2376                           ;incstack = 0
  2377                           ;config_TMR1@check_flag_method stored from wreg
  2378  001FE6  0100               	movlb	0	; () banked
  2379  001FE8  6F72               	movwf	config_TMR1@check_flag_method& (0+255),b
  2380                           
  2381                           ;timers.h: 126: if (check_flag_method)
  2382  001FEA  0100               	movlb	0	; () banked
  2383  001FEC  5172               	movf	config_TMR1@check_flag_method& (0+255),w,b
  2384  001FEE  0100               	movlb	0	; () banked
  2385  001FF0  B4D8               	btfsc	status,2,c
  2386  001FF2  D002               	goto	l61
  2387                           
  2388                           ; BSR set to: 0
  2389                           ;timers.h: 127: PIE1bits.TMR1IE = 1;
  2390  001FF4  809D               	bsf	3997,0,c	;volatile
  2391  001FF6  D001               	goto	l1719
  2392  001FF8                     l61:
  2393                           
  2394                           ; BSR set to: 0
  2395                           ;timers.h: 128: else
  2396                           ;timers.h: 129: PIE1bits.TMR1IE = 0;
  2397  001FF8  909D               	bcf	3997,0,c	;volatile
  2398  001FFA                     l1719:
  2399                           
  2400                           ; BSR set to: 0
  2401                           ;timers.h: 161: T1CON = 0b00110010;
  2402  001FFA  0E32               	movlw	50
  2403  001FFC  6ECD               	movwf	4045,c	;volatile
  2404                           
  2405                           ; BSR set to: 0
  2406                           ;timers.h: 163: if (clock_source){
  2407  001FFE  0100               	movlb	0	; () banked
  2408  002000  5171               	movf	config_TMR1@clock_source& (0+255),w,b
  2409  002002  0100               	movlb	0	; () banked
  2410  002004  B4D8               	btfsc	status,2,c
  2411  002006  D003               	goto	l63
  2412                           
  2413                           ; BSR set to: 0
  2414                           ;timers.h: 164: T1CONbits.TMR1CS1 = 1;
  2415  002008  8ECD               	bsf	4045,7,c	;volatile
  2416                           
  2417                           ;timers.h: 165: T1CONbits.TMR1CS0 = 0;
  2418  00200A  9CCD               	bcf	4045,6,c	;volatile
  2419                           
  2420                           ;timers.h: 166: }
  2421  00200C  0012               	return	
  2422  00200E                     l63:
  2423                           
  2424                           ; BSR set to: 0
  2425                           ;timers.h: 167: else{
  2426                           ;timers.h: 168: T1CONbits.TMR1CS1 = 0;
  2427  00200E  9ECD               	bcf	4045,7,c	;volatile
  2428                           
  2429                           ;timers.h: 169: T1CONbits.TMR1CS0 = 0;
  2430  002010  9CCD               	bcf	4045,6,c	;volatile
  2431  002012  0012               	return	
  2432  002014                     __end_of_config_TMR1:
  2433                           	opt stack 0
  2434                           intcon	equ	0xFF2
  2435                           status	equ	0xFD8
  2436                           
  2437 ;; *************** function _config_TMR0 *****************
  2438 ;; Defined at:
  2439 ;;		line 30 in file "timers.h"
  2440 ;; Parameters:    Size  Location     Type
  2441 ;;  check_flag_m    1    wreg     unsigned char 
  2442 ;;  clock_source    1   17[BANK0 ] unsigned char 
  2443 ;; Auto vars:     Size  Location     Type
  2444 ;;  check_flag_m    1   18[BANK0 ] unsigned char 
  2445 ;; Return value:  Size  Location     Type
  2446 ;;                  1    wreg      void 
  2447 ;; Registers used:
  2448 ;;		wreg, status,2
  2449 ;; Tracked objects:
  2450 ;;		On entry : 0/0
  2451 ;;		On exit  : 0/0
  2452 ;;		Unchanged: 0/0
  2453 ;; Data sizes:     COMRAM   BANK0   BANK1   BANK2   BANK3   BANK4   BANK5   BANK6   BANK7
  2454 ;;      Params:         0       1       0       0       0       0       0       0       0
  2455 ;;      Locals:         0       1       0       0       0       0       0       0       0
  2456 ;;      Temps:          0       0       0       0       0       0       0       0       0
  2457 ;;      Totals:         0       2       0       0       0       0       0       0       0
  2458 ;;Total ram usage:        2 bytes
  2459 ;; Hardware stack levels used:    1
  2460 ;; Hardware stack levels required when called:    5
  2461 ;; This function calls:
  2462 ;;		Nothing
  2463 ;; This function is called by:
  2464 ;;		_main
  2465 ;; This function uses a non-reentrant model
  2466 ;;
  2467                           
  2468                           	psect	text12
  2469  00203E                     __ptext12:
  2470                           	opt stack 0
  2471  00203E                     _config_TMR0:
  2472                           	opt stack 25
  2473                           
  2474                           ; BSR set to: 0
  2475                           ;incstack = 0
  2476                           ;config_TMR0@check_flag_method stored from wreg
  2477  00203E  0100               	movlb	0	; () banked
  2478  002040  6F72               	movwf	config_TMR0@check_flag_method& (0+255),b
  2479                           
  2480                           ;timers.h: 62: if (check_flag_method)
  2481  002042  0100               	movlb	0	; () banked
  2482  002044  5172               	movf	config_TMR0@check_flag_method& (0+255),w,b
  2483  002046  0100               	movlb	0	; () banked
  2484  002048  B4D8               	btfsc	status,2,c
  2485  00204A  D002               	goto	l49
  2486                           
  2487                           ; BSR set to: 0
  2488                           ;timers.h: 63: INTCONbits.TMR0IE = 1;
  2489  00204C  8AF2               	bsf	intcon,5,c	;volatile
  2490  00204E  D001               	goto	l1697
  2491  002050                     l49:
  2492                           
  2493                           ; BSR set to: 0
  2494                           ;timers.h: 64: else
  2495                           ;timers.h: 65: INTCONbits.TMR0IE = 0;
  2496  002050  9AF2               	bcf	intcon,5,c	;volatile
  2497  002052                     l1697:
  2498                           
  2499                           ; BSR set to: 0
  2500                           ;timers.h: 93: T0CON = 0b00000111;
  2501  002052  0E07               	movlw	7
  2502  002054  6ED5               	movwf	4053,c	;volatile
  2503                           
  2504                           ; BSR set to: 0
  2505                           ;timers.h: 95: if (clock_source)
  2506  002056  0100               	movlb	0	; () banked
  2507  002058  5171               	movf	config_TMR0@clock_source& (0+255),w,b
  2508  00205A  0100               	movlb	0	; () banked
  2509  00205C  B4D8               	btfsc	status,2,c
  2510  00205E  D002               	goto	l51
  2511                           
  2512                           ; BSR set to: 0
  2513                           ;timers.h: 96: T0CONbits.T0CS = 1;
  2514  002060  8AD5               	bsf	4053,5,c	;volatile
  2515  002062  0012               	return	
  2516  002064                     l51:
  2517                           
  2518                           ; BSR set to: 0
  2519                           ;timers.h: 97: else
  2520                           ;timers.h: 98: T0CONbits.T0CS = 0;
  2521  002064  9AD5               	bcf	4053,5,c	;volatile
  2522  002066  0012               	return	
  2523  002068                     __end_of_config_TMR0:
  2524                           	opt stack 0
  2525                           intcon	equ	0xFF2
  2526                           status	equ	0xFD8
  2527                           
  2528 ;; *************** function _low_isr *****************
  2529 ;; Defined at:
  2530 ;;		line 41 in file "timers.c"
  2531 ;; Parameters:    Size  Location     Type
  2532 ;;		None
  2533 ;; Auto vars:     Size  Location     Type
  2534 ;;		None
  2535 ;; Return value:  Size  Location     Type
  2536 ;;                  1    wreg      void 
  2537 ;; Registers used:
  2538 ;;		None
  2539 ;; Tracked objects:
  2540 ;;		On entry : 0/0
  2541 ;;		On exit  : 0/0
  2542 ;;		Unchanged: 0/0
  2543 ;; Data sizes:     COMRAM   BANK0   BANK1   BANK2   BANK3   BANK4   BANK5   BANK6   BANK7
  2544 ;;      Params:         0       0       0       0       0       0       0       0       0
  2545 ;;      Locals:         0       0       0       0       0       0       0       0       0
  2546 ;;      Temps:          0      17       0       0       0       0       0       0       0
  2547 ;;      Totals:         0      17       0       0       0       0       0       0       0
  2548 ;;Total ram usage:       17 bytes
  2549 ;; Hardware stack levels used:    1
  2550 ;; Hardware stack levels required when called:    4
  2551 ;; This function calls:
  2552 ;;		Nothing
  2553 ;; This function is called by:
  2554 ;;		Interrupt level 1
  2555 ;; This function uses a non-reentrant model
  2556 ;;
  2557                           
  2558                           	psect	intcodelo
  2559  001018                     __pintcodelo:
  2560                           	opt stack 0
  2561  001018                     _low_isr:
  2562                           	opt stack 23
  2563                           
  2564                           ; BSR set to: 0
  2565                           ;incstack = 0
  2566  001018  804B               	bsf	btemp,0,c	;set compiler interrupt flag (level 1)
  2567  00101A  CFD8 F060          	movff	status,??_low_isr
  2568  00101E  CFE8 F061          	movff	wreg,??_low_isr+1
  2569  001022  CFE0 F062          	movff	bsr,??_low_isr+2
  2570  001026  CFFA F063          	movff	pclath,??_low_isr+3
  2571  00102A  CFFB F064          	movff	pclatu,??_low_isr+4
  2572  00102E  CFE9 F065          	movff	fsr0l,??_low_isr+5
  2573  001032  CFEA F066          	movff	fsr0h,??_low_isr+6
  2574  001036  CFE1 F067          	movff	fsr1l,??_low_isr+7
  2575  00103A  CFE2 F068          	movff	fsr1h,??_low_isr+8
  2576  00103E  CFD9 F069          	movff	fsr2l,??_low_isr+9
  2577  001042  CFDA F06A          	movff	fsr2h,??_low_isr+10
  2578  001046  CFF3 F06B          	movff	prodl,??_low_isr+11
  2579  00104A  CFF4 F06C          	movff	prodh,??_low_isr+12
  2580  00104E  CFF6 F06D          	movff	tblptrl,??_low_isr+13
  2581  001052  CFF7 F06E          	movff	tblptrh,??_low_isr+14
  2582  001056  CFF8 F06F          	movff	tblptru,??_low_isr+15
  2583  00105A  CFF5 F070          	movff	tablat,??_low_isr+16
  2584  00105E  C070  FFF5         	movff	??_low_isr+16,tablat
  2585  001062  C06F  FFF8         	movff	??_low_isr+15,tblptru
  2586  001066  C06E  FFF7         	movff	??_low_isr+14,tblptrh
  2587  00106A  C06D  FFF6         	movff	??_low_isr+13,tblptrl
  2588  00106E  C06C  FFF4         	movff	??_low_isr+12,prodh
  2589  001072  C06B  FFF3         	movff	??_low_isr+11,prodl
  2590  001076  C06A  FFDA         	movff	??_low_isr+10,fsr2h
  2591  00107A  C069  FFD9         	movff	??_low_isr+9,fsr2l
  2592  00107E  C068  FFE2         	movff	??_low_isr+8,fsr1h
  2593  001082  C067  FFE1         	movff	??_low_isr+7,fsr1l
  2594  001086  C066  FFEA         	movff	??_low_isr+6,fsr0h
  2595  00108A  C065  FFE9         	movff	??_low_isr+5,fsr0l
  2596  00108E  C064  FFFB         	movff	??_low_isr+4,pclatu
  2597  001092  C063  FFFA         	movff	??_low_isr+3,pclath
  2598  001096  C062  FFE0         	movff	??_low_isr+2,bsr
  2599  00109A  C061  FFE8         	movff	??_low_isr+1,wreg
  2600  00109E  C060  FFD8         	movff	??_low_isr,status
  2601  0010A2  904B               	bcf	btemp,0,c	;clear compiler interrupt flag (level 1)
  2602  0010A4  0010               	retfie	
  2603  0010A6                     __end_of_low_isr:
  2604                           	opt stack 0
  2605                           pclatu	equ	0xFFB
  2606                           pclath	equ	0xFFA
  2607                           tblptru	equ	0xFF8
  2608                           tblptrh	equ	0xFF7
  2609                           tblptrl	equ	0xFF6
  2610                           tablat	equ	0xFF5
  2611                           prodh	equ	0xFF4
  2612                           prodl	equ	0xFF3
  2613                           intcon	equ	0xFF2
  2614                           fsr0h	equ	0xFEA
  2615                           fsr0l	equ	0xFE9
  2616                           wreg	equ	0xFE8
  2617                           fsr1h	equ	0xFE2
  2618                           fsr1l	equ	0xFE1
  2619                           bsr	equ	0xFE0
  2620                           fsr2h	equ	0xFDA
  2621                           fsr2l	equ	0xFD9
  2622                           status	equ	0xFD8
  2623                           
  2624 ;; *************** function _high_isr *****************
  2625 ;; Defined at:
  2626 ;;		line 19 in file "timers.c"
  2627 ;; Parameters:    Size  Location     Type
  2628 ;;		None
  2629 ;; Auto vars:     Size  Location     Type
  2630 ;;		None
  2631 ;; Return value:  Size  Location     Type
  2632 ;;                  1    wreg      void 
  2633 ;; Registers used:
  2634 ;;		wreg, status,2, status,0, cstack
  2635 ;; Tracked objects:
  2636 ;;		On entry : 0/0
  2637 ;;		On exit  : 0/0
  2638 ;;		Unchanged: 0/0
  2639 ;; Data sizes:     COMRAM   BANK0   BANK1   BANK2   BANK3   BANK4   BANK5   BANK6   BANK7
  2640 ;;      Params:         0       0       0       0       0       0       0       0       0
  2641 ;;      Locals:         0       0       0       0       0       0       0       0       0
  2642 ;;      Temps:         14       0       0       0       0       0       0       0       0
  2643 ;;      Totals:        14       0       0       0       0       0       0       0       0
  2644 ;;Total ram usage:       14 bytes
  2645 ;; Hardware stack levels used:    1
  2646 ;; Hardware stack levels required when called:    3
  2647 ;; This function calls:
  2648 ;;		i2_start_TMR0ms
  2649 ;;		i2_start_TMR1ms
  2650 ;;		i2_start_TMR3ms
  2651 ;; This function is called by:
  2652 ;;		Interrupt level 2
  2653 ;; This function uses a non-reentrant model
  2654 ;;
  2655                           
  2656                           	psect	intcode
  2657  001008                     __pintcode:
  2658                           	opt stack 0
  2659  001008                     _high_isr:
  2660                           	opt stack 23
  2661                           
  2662                           ;incstack = 0
  2663  001008  824B               	bsf	btemp,1,c	;set compiler interrupt flag (level 2)
  2664  00100A  EF1A  F00D         	goto	int_func
  2665                           pclatu	equ	0xFFB
  2666                           pclath	equ	0xFFA
  2667                           tblptru	equ	0xFF8
  2668                           tblptrh	equ	0xFF7
  2669                           tblptrl	equ	0xFF6
  2670                           tablat	equ	0xFF5
  2671                           prodh	equ	0xFF4
  2672                           prodl	equ	0xFF3
  2673                           intcon	equ	0xFF2
  2674                           fsr0h	equ	0xFEA
  2675                           fsr0l	equ	0xFE9
  2676                           wreg	equ	0xFE8
  2677                           fsr1h	equ	0xFE2
  2678                           fsr1l	equ	0xFE1
  2679                           bsr	equ	0xFE0
  2680                           fsr2h	equ	0xFDA
  2681                           fsr2l	equ	0xFD9
  2682                           status	equ	0xFD8
  2683                           
  2684                           	psect	intcode_body
  2685  001A34                     __pintcode_body:
  2686                           	opt stack 23
  2687  001A34                     int_func:
  2688                           	opt stack 23
  2689  001A34  CFFA F03D          	movff	pclath,??_high_isr
  2690  001A38  CFFB F03E          	movff	pclatu,??_high_isr+1
  2691  001A3C  CFE9 F03F          	movff	fsr0l,??_high_isr+2
  2692  001A40  CFEA F040          	movff	fsr0h,??_high_isr+3
  2693  001A44  CFE1 F041          	movff	fsr1l,??_high_isr+4
  2694  001A48  CFE2 F042          	movff	fsr1h,??_high_isr+5
  2695  001A4C  CFD9 F043          	movff	fsr2l,??_high_isr+6
  2696  001A50  CFDA F044          	movff	fsr2h,??_high_isr+7
  2697  001A54  CFF3 F045          	movff	prodl,??_high_isr+8
  2698  001A58  CFF4 F046          	movff	prodh,??_high_isr+9
  2699  001A5C  CFF6 F047          	movff	tblptrl,??_high_isr+10
  2700  001A60  CFF7 F048          	movff	tblptrh,??_high_isr+11
  2701  001A64  CFF8 F049          	movff	tblptru,??_high_isr+12
  2702  001A68  CFF5 F04A          	movff	tablat,??_high_isr+13
  2703                           
  2704                           ;timers.c: 21: if ((PIR1 & 1)){
  2705  001A6C  A09E               	btfss	3998,0,c	;volatile
  2706  001A6E  D00A               	goto	i2l1803
  2707                           
  2708                           ;timers.c: 22: PIR1bits.TMR1IF = T1CONbits.TMR1ON = 0;
  2709  001A70  90CD               	bcf	4045,0,c	;volatile
  2710  001A72  909E               	bcf	3998,0,c	;volatile
  2711                           
  2712                           ;timers.c: 23: LATB ^= 1;
  2713  001A74  0E01               	movlw	1
  2714  001A76  1A8A               	xorwf	3978,f,c	;volatile
  2715                           
  2716                           ;timers.c: 24: start_TMR1ms(25);
  2717  001A78  0E00               	movlw	0
  2718  001A7A  6E3A               	movwf	i2start_TMR1ms@milliseconds+1,c
  2719  001A7C  0E19               	movlw	25
  2720  001A7E  6E39               	movwf	i2start_TMR1ms@milliseconds,c
  2721  001A80  EC06  F00F         	call	i2_start_TMR1ms	;wreg free
  2722  001A84                     i2l1803:
  2723                           
  2724                           ;timers.c: 25: }
  2725                           ;timers.c: 27: if ((PIR2 & (1 << 1))){
  2726  001A84  A2A1               	btfss	4001,1,c	;volatile
  2727  001A86  D00A               	goto	i2l1811
  2728                           
  2729                           ;timers.c: 28: PIR2bits.TMR3IF = T3CONbits.TMR3ON = 0;
  2730  001A88  90B1               	bcf	4017,0,c	;volatile
  2731  001A8A  92A1               	bcf	4001,1,c	;volatile
  2732                           
  2733                           ;timers.c: 29: LATB ^= (1 << 1);
  2734  001A8C  0E02               	movlw	2
  2735  001A8E  1A8A               	xorwf	3978,f,c	;volatile
  2736                           
  2737                           ;timers.c: 30: start_TMR3ms(100);
  2738  001A90  0E00               	movlw	0
  2739  001A92  6E3A               	movwf	i2start_TMR3ms@milliseconds+1,c
  2740  001A94  0E64               	movlw	100
  2741  001A96  6E39               	movwf	i2start_TMR3ms@milliseconds,c
  2742  001A98  ECBF  F00E         	call	i2_start_TMR3ms	;wreg free
  2743  001A9C                     i2l1811:
  2744                           
  2745                           ;timers.c: 31: }
  2746                           ;timers.c: 33: if ((INTCON & (1 << 2))){
  2747  001A9C  A4F2               	btfss	intcon,2,c	;volatile
  2748  001A9E  D00A               	goto	i2l90
  2749                           
  2750                           ;timers.c: 34: INTCONbits.TMR0IF = T0CONbits.TMR0ON = 0;
  2751  001AA0  9ED5               	bcf	4053,7,c	;volatile
  2752  001AA2  94F2               	bcf	intcon,2,c	;volatile
  2753                           
  2754                           ;timers.c: 35: LATB ^= (1 << 2);
  2755  001AA4  0E04               	movlw	4
  2756  001AA6  1A8A               	xorwf	3978,f,c	;volatile
  2757                           
  2758                           ;timers.c: 36: start_TMR0ms(300);
  2759  001AA8  0E01               	movlw	1
  2760  001AAA  6E3A               	movwf	i2start_TMR0ms@milliseconds+1,c
  2761  001AAC  0E2C               	movlw	44
  2762  001AAE  6E39               	movwf	i2start_TMR0ms@milliseconds,c
  2763  001AB0  EC4D  F00F         	call	i2_start_TMR0ms	;wreg free
  2764  001AB4                     i2l90:
  2765  001AB4  C04A  FFF5         	movff	??_high_isr+13,tablat
  2766  001AB8  C049  FFF8         	movff	??_high_isr+12,tblptru
  2767  001ABC  C048  FFF7         	movff	??_high_isr+11,tblptrh
  2768  001AC0  C047  FFF6         	movff	??_high_isr+10,tblptrl
  2769  001AC4  C046  FFF4         	movff	??_high_isr+9,prodh
  2770  001AC8  C045  FFF3         	movff	??_high_isr+8,prodl
  2771  001ACC  C044  FFDA         	movff	??_high_isr+7,fsr2h
  2772  001AD0  C043  FFD9         	movff	??_high_isr+6,fsr2l
  2773  001AD4  C042  FFE2         	movff	??_high_isr+5,fsr1h
  2774  001AD8  C041  FFE1         	movff	??_high_isr+4,fsr1l
  2775  001ADC  C040  FFEA         	movff	??_high_isr+3,fsr0h
  2776  001AE0  C03F  FFE9         	movff	??_high_isr+2,fsr0l
  2777  001AE4  C03E  FFFB         	movff	??_high_isr+1,pclatu
  2778  001AE8  C03D  FFFA         	movff	??_high_isr,pclath
  2779  001AEC  924B               	bcf	btemp,1,c	;clear compiler interrupt flag (level 2)
  2780  001AEE  0011               	retfie		f
  2781  001AF0                     __end_of_high_isr:
  2782                           	opt stack 0
  2783                           pclatu	equ	0xFFB
  2784                           pclath	equ	0xFFA
  2785                           tblptru	equ	0xFF8
  2786                           tblptrh	equ	0xFF7
  2787                           tblptrl	equ	0xFF6
  2788                           tablat	equ	0xFF5
  2789                           prodh	equ	0xFF4
  2790                           prodl	equ	0xFF3
  2791                           intcon	equ	0xFF2
  2792                           fsr0h	equ	0xFEA
  2793                           fsr0l	equ	0xFE9
  2794                           wreg	equ	0xFE8
  2795                           fsr1h	equ	0xFE2
  2796                           fsr1l	equ	0xFE1
  2797                           bsr	equ	0xFE0
  2798                           fsr2h	equ	0xFDA
  2799                           fsr2l	equ	0xFD9
  2800                           status	equ	0xFD8
  2801                           
  2802 ;; *************** function i2_start_TMR3ms *****************
  2803 ;; Defined at:
  2804 ;;		line 245 in file "timers.h"
  2805 ;; Parameters:    Size  Location     Type
  2806 ;;  milliseconds    2   56[COMRAM] unsigned int 
  2807 ;; Auto vars:     Size  Location     Type
  2808 ;;  start_TMR3ms    2   58[COMRAM] unsigned int 
  2809 ;; Return value:  Size  Location     Type
  2810 ;;                  1    wreg      void 
  2811 ;; Registers used:
  2812 ;;		wreg, status,2, status,0, cstack
  2813 ;; Tracked objects:
  2814 ;;		On entry : 0/0
  2815 ;;		On exit  : 0/0
  2816 ;;		Unchanged: 0/0
  2817 ;; Data sizes:     COMRAM   BANK0   BANK1   BANK2   BANK3   BANK4   BANK5   BANK6   BANK7
  2818 ;;      Params:         2       0       0       0       0       0       0       0       0
  2819 ;;      Locals:         2       0       0       0       0       0       0       0       0
  2820 ;;      Temps:          0       0       0       0       0       0       0       0       0
  2821 ;;      Totals:         4       0       0       0       0       0       0       0       0
  2822 ;;Total ram usage:        4 bytes
  2823 ;; Hardware stack levels used:    1
  2824 ;; Hardware stack levels required when called:    2
  2825 ;; This function calls:
  2826 ;;		i2___ftadd
  2827 ;;		i2___ftdiv
  2828 ;;		i2___ftneg
  2829 ;;		i2___fttol
  2830 ;;		i2___lwtoft
  2831 ;; This function is called by:
  2832 ;;		_high_isr
  2833 ;; This function uses a non-reentrant model
  2834 ;;
  2835                           
  2836                           	psect	text15
  2837  001D7E                     __ptext15:
  2838                           	opt stack 0
  2839  001D7E                     i2_start_TMR3ms:
  2840                           	opt stack 23
  2841                           
  2842                           ;timers.h: 246: unsigned int temp_time;
  2843                           ;timers.h: 248: if (milliseconds > 130){
  2844                           
  2845                           ;incstack = 0
  2846  001D7E  503A               	movf	i2start_TMR3ms@milliseconds+1,w,c
  2847  001D80  E104               	bnz	i2u199_40
  2848  001D82  0E83               	movlw	131
  2849  001D84  5C39               	subwf	i2start_TMR3ms@milliseconds,w,c
  2850  001D86  A0D8               	btfss	status,0,c
  2851  001D88  D005               	goto	i2l1787
  2852  001D8A                     i2u199_40:
  2853                           
  2854                           ;timers.h: 249: TMR3H = 0;
  2855  001D8A  0E00               	movlw	0
  2856  001D8C  6EB3               	movwf	4019,c	;volatile
  2857                           
  2858                           ;timers.h: 250: TMR3L = 0;
  2859  001D8E  0E00               	movlw	0
  2860  001D90  6EB2               	movwf	4018,c	;volatile
  2861                           
  2862                           ;timers.h: 251: }
  2863  001D92  D03A               	goto	i2l1793
  2864  001D94                     i2l1787:
  2865                           
  2866                           ;timers.h: 252: else{
  2867                           ;timers.h: 259: temp_time = (unsigned int)(65536 - (milliseconds / 0.002));
  2868  001D94  0E00               	movlw	0
  2869  001D96  6E21               	movwf	i2___ftadd@f2,c
  2870  001D98  0E80               	movlw	128
  2871  001D9A  6E22               	movwf	i2___ftadd@f2+1,c
  2872  001D9C  0E47               	movlw	71
  2873  001D9E  6E23               	movwf	i2___ftadd@f2+2,c
  2874  001DA0  0E12               	movlw	18
  2875  001DA2  6E0F               	movwf	i2___ftdiv@f2,c
  2876  001DA4  0E03               	movlw	3
  2877  001DA6  6E10               	movwf	i2___ftdiv@f2+1,c
  2878  001DA8  0E3B               	movlw	59
  2879  001DAA  6E11               	movwf	i2___ftdiv@f2+2,c
  2880  001DAC  C039  F009         	movff	i2start_TMR3ms@milliseconds,i2___lwtoft@c
  2881  001DB0  C03A  F00A         	movff	i2start_TMR3ms@milliseconds+1,i2___lwtoft@c+1
  2882  001DB4  EC34  F010         	call	i2___lwtoft	;wreg free
  2883  001DB8  C009  F00C         	movff	?i2___lwtoft,i2___ftdiv@f1
  2884  001DBC  C00A  F00D         	movff	?i2___lwtoft+1,i2___ftdiv@f1+1
  2885  001DC0  C00B  F00E         	movff	?i2___lwtoft+2,i2___ftdiv@f1+2
  2886  001DC4  ECA7  F00C         	call	i2___ftdiv	;wreg free
  2887  001DC8  C00C  F01B         	movff	?i2___ftdiv,i2___ftneg@f1
  2888  001DCC  C00D  F01C         	movff	?i2___ftdiv+1,i2___ftneg@f1+1
  2889  001DD0  C00E  F01D         	movff	?i2___ftdiv+2,i2___ftneg@f1+2
  2890  001DD4  EC46  F010         	call	i2___ftneg	;wreg free
  2891  001DD8  C01B  F01E         	movff	?i2___ftneg,i2___ftadd@f1
  2892  001DDC  C01C  F01F         	movff	?i2___ftneg+1,i2___ftadd@f1+1
  2893  001DE0  C01D  F020         	movff	?i2___ftneg+2,i2___ftadd@f1+2
  2894  001DE4  EC89  F009         	call	i2___ftadd	;wreg free
  2895  001DE8  C01E  F02A         	movff	?i2___ftadd,i2___fttol@f1
  2896  001DEC  C01F  F02B         	movff	?i2___ftadd+1,i2___fttol@f1+1
  2897  001DF0  C020  F02C         	movff	?i2___ftadd+2,i2___fttol@f1+2
  2898  001DF4  EC2D  F00C         	call	i2___fttol	;wreg free
  2899  001DF8  C02A  F03B         	movff	?i2___fttol,i2start_TMR3ms@temp_time
  2900  001DFC  C02B  F03C         	movff	?i2___fttol+1,i2start_TMR3ms@temp_time+1
  2901                           
  2902                           ;timers.h: 260: TMR3H = (unsigned char)(temp_time / 256);
  2903  001E00  503C               	movf	i2start_TMR3ms@temp_time+1,w,c
  2904  001E02  6EB3               	movwf	4019,c	;volatile
  2905                           
  2906                           ;timers.h: 261: TMR3L = (unsigned char)temp_time;
  2907  001E04  C03B  FFB2         	movff	i2start_TMR3ms@temp_time,4018	;volatile
  2908  001E08                     i2l1793:
  2909                           
  2910                           ;timers.h: 262: }
  2911                           ;timers.h: 264: T3CONbits.TMR3ON = 1;
  2912  001E08  80B1               	bsf	4017,0,c	;volatile
  2913  001E0A  0012               	return		;funcret
  2914  001E0C                     __end_ofi2_start_TMR3ms:
  2915                           	opt stack 0
  2916                           pclatu	equ	0xFFB
  2917                           pclath	equ	0xFFA
  2918                           tblptru	equ	0xFF8
  2919                           tblptrh	equ	0xFF7
  2920                           tblptrl	equ	0xFF6
  2921                           tablat	equ	0xFF5
  2922                           prodh	equ	0xFF4
  2923                           prodl	equ	0xFF3
  2924                           intcon	equ	0xFF2
  2925                           fsr0h	equ	0xFEA
  2926                           fsr0l	equ	0xFE9
  2927                           wreg	equ	0xFE8
  2928                           fsr1h	equ	0xFE2
  2929                           fsr1l	equ	0xFE1
  2930                           bsr	equ	0xFE0
  2931                           fsr2h	equ	0xFDA
  2932                           fsr2l	equ	0xFD9
  2933                           status	equ	0xFD8
  2934                           
  2935 ;; *************** function i2_start_TMR1ms *****************
  2936 ;; Defined at:
  2937 ;;		line 173 in file "timers.h"
  2938 ;; Parameters:    Size  Location     Type
  2939 ;;  milliseconds    2   56[COMRAM] unsigned int 
  2940 ;; Auto vars:     Size  Location     Type
  2941 ;;  start_TMR1ms    2   58[COMRAM] unsigned int 
  2942 ;; Return value:  Size  Location     Type
  2943 ;;                  1    wreg      void 
  2944 ;; Registers used:
  2945 ;;		wreg, status,2, status,0, cstack
  2946 ;; Tracked objects:
  2947 ;;		On entry : 0/0
  2948 ;;		On exit  : 0/0
  2949 ;;		Unchanged: 0/0
  2950 ;; Data sizes:     COMRAM   BANK0   BANK1   BANK2   BANK3   BANK4   BANK5   BANK6   BANK7
  2951 ;;      Params:         2       0       0       0       0       0       0       0       0
  2952 ;;      Locals:         2       0       0       0       0       0       0       0       0
  2953 ;;      Temps:          0       0       0       0       0       0       0       0       0
  2954 ;;      Totals:         4       0       0       0       0       0       0       0       0
  2955 ;;Total ram usage:        4 bytes
  2956 ;; Hardware stack levels used:    1
  2957 ;; Hardware stack levels required when called:    2
  2958 ;; This function calls:
  2959 ;;		i2___ftadd
  2960 ;;		i2___ftdiv
  2961 ;;		i2___ftneg
  2962 ;;		i2___fttol
  2963 ;;		i2___lwtoft
  2964 ;; This function is called by:
  2965 ;;		_high_isr
  2966 ;; This function uses a non-reentrant model
  2967 ;;
  2968                           
  2969                           	psect	text16
  2970  001E0C                     __ptext16:
  2971                           	opt stack 0
  2972  001E0C                     i2_start_TMR1ms:
  2973                           	opt stack 23
  2974                           
  2975                           ;timers.h: 174: unsigned int temp_time;
  2976                           ;timers.h: 176: if (milliseconds > 130){
  2977                           
  2978                           ;incstack = 0
  2979  001E0C  503A               	movf	i2start_TMR1ms@milliseconds+1,w,c
  2980  001E0E  E104               	bnz	i2u198_40
  2981  001E10  0E83               	movlw	131
  2982  001E12  5C39               	subwf	i2start_TMR1ms@milliseconds,w,c
  2983  001E14  A0D8               	btfss	status,0,c
  2984  001E16  D005               	goto	i2l1775
  2985  001E18                     i2u198_40:
  2986                           
  2987                           ;timers.h: 177: TMR1H = 0;
  2988  001E18  0E00               	movlw	0
  2989  001E1A  6ECF               	movwf	4047,c	;volatile
  2990                           
  2991                           ;timers.h: 178: TMR1L = 0;
  2992  001E1C  0E00               	movlw	0
  2993  001E1E  6ECE               	movwf	4046,c	;volatile
  2994                           
  2995                           ;timers.h: 179: }
  2996  001E20  D03A               	goto	i2l1781
  2997  001E22                     i2l1775:
  2998                           
  2999                           ;timers.h: 180: else{
  3000                           ;timers.h: 187: temp_time = (unsigned int)(65536 - (milliseconds / 0.002));
  3001  001E22  0E00               	movlw	0
  3002  001E24  6E21               	movwf	i2___ftadd@f2,c
  3003  001E26  0E80               	movlw	128
  3004  001E28  6E22               	movwf	i2___ftadd@f2+1,c
  3005  001E2A  0E47               	movlw	71
  3006  001E2C  6E23               	movwf	i2___ftadd@f2+2,c
  3007  001E2E  0E12               	movlw	18
  3008  001E30  6E0F               	movwf	i2___ftdiv@f2,c
  3009  001E32  0E03               	movlw	3
  3010  001E34  6E10               	movwf	i2___ftdiv@f2+1,c
  3011  001E36  0E3B               	movlw	59
  3012  001E38  6E11               	movwf	i2___ftdiv@f2+2,c
  3013  001E3A  C039  F009         	movff	i2start_TMR1ms@milliseconds,i2___lwtoft@c
  3014  001E3E  C03A  F00A         	movff	i2start_TMR1ms@milliseconds+1,i2___lwtoft@c+1
  3015  001E42  EC34  F010         	call	i2___lwtoft	;wreg free
  3016  001E46  C009  F00C         	movff	?i2___lwtoft,i2___ftdiv@f1
  3017  001E4A  C00A  F00D         	movff	?i2___lwtoft+1,i2___ftdiv@f1+1
  3018  001E4E  C00B  F00E         	movff	?i2___lwtoft+2,i2___ftdiv@f1+2
  3019  001E52  ECA7  F00C         	call	i2___ftdiv	;wreg free
  3020  001E56  C00C  F01B         	movff	?i2___ftdiv,i2___ftneg@f1
  3021  001E5A  C00D  F01C         	movff	?i2___ftdiv+1,i2___ftneg@f1+1
  3022  001E5E  C00E  F01D         	movff	?i2___ftdiv+2,i2___ftneg@f1+2
  3023  001E62  EC46  F010         	call	i2___ftneg	;wreg free
  3024  001E66  C01B  F01E         	movff	?i2___ftneg,i2___ftadd@f1
  3025  001E6A  C01C  F01F         	movff	?i2___ftneg+1,i2___ftadd@f1+1
  3026  001E6E  C01D  F020         	movff	?i2___ftneg+2,i2___ftadd@f1+2
  3027  001E72  EC89  F009         	call	i2___ftadd	;wreg free
  3028  001E76  C01E  F02A         	movff	?i2___ftadd,i2___fttol@f1
  3029  001E7A  C01F  F02B         	movff	?i2___ftadd+1,i2___fttol@f1+1
  3030  001E7E  C020  F02C         	movff	?i2___ftadd+2,i2___fttol@f1+2
  3031  001E82  EC2D  F00C         	call	i2___fttol	;wreg free
  3032  001E86  C02A  F03B         	movff	?i2___fttol,i2start_TMR1ms@temp_time
  3033  001E8A  C02B  F03C         	movff	?i2___fttol+1,i2start_TMR1ms@temp_time+1
  3034                           
  3035                           ;timers.h: 188: TMR1H = (unsigned char)(temp_time / 256);
  3036  001E8E  503C               	movf	i2start_TMR1ms@temp_time+1,w,c
  3037  001E90  6ECF               	movwf	4047,c	;volatile
  3038                           
  3039                           ;timers.h: 189: TMR1L = (unsigned char)temp_time;
  3040  001E92  C03B  FFCE         	movff	i2start_TMR1ms@temp_time,4046	;volatile
  3041  001E96                     i2l1781:
  3042                           
  3043                           ;timers.h: 190: }
  3044                           ;timers.h: 192: T1CONbits.TMR1ON = 1;
  3045  001E96  80CD               	bsf	4045,0,c	;volatile
  3046  001E98  0012               	return		;funcret
  3047  001E9A                     __end_ofi2_start_TMR1ms:
  3048                           	opt stack 0
  3049                           pclatu	equ	0xFFB
  3050                           pclath	equ	0xFFA
  3051                           tblptru	equ	0xFF8
  3052                           tblptrh	equ	0xFF7
  3053                           tblptrl	equ	0xFF6
  3054                           tablat	equ	0xFF5
  3055                           prodh	equ	0xFF4
  3056                           prodl	equ	0xFF3
  3057                           intcon	equ	0xFF2
  3058                           fsr0h	equ	0xFEA
  3059                           fsr0l	equ	0xFE9
  3060                           wreg	equ	0xFE8
  3061                           fsr1h	equ	0xFE2
  3062                           fsr1l	equ	0xFE1
  3063                           bsr	equ	0xFE0
  3064                           fsr2h	equ	0xFDA
  3065                           fsr2l	equ	0xFD9
  3066                           status	equ	0xFD8
  3067                           
  3068 ;; *************** function i2_start_TMR0ms *****************
  3069 ;; Defined at:
  3070 ;;		line 101 in file "timers.h"
  3071 ;; Parameters:    Size  Location     Type
  3072 ;;  milliseconds    2   56[COMRAM] unsigned int 
  3073 ;; Auto vars:     Size  Location     Type
  3074 ;;  start_TMR0ms    2   58[COMRAM] unsigned int 
  3075 ;; Return value:  Size  Location     Type
  3076 ;;                  1    wreg      void 
  3077 ;; Registers used:
  3078 ;;		wreg, status,2, status,0, cstack
  3079 ;; Tracked objects:
  3080 ;;		On entry : 0/0
  3081 ;;		On exit  : 0/0
  3082 ;;		Unchanged: 0/0
  3083 ;; Data sizes:     COMRAM   BANK0   BANK1   BANK2   BANK3   BANK4   BANK5   BANK6   BANK7
  3084 ;;      Params:         2       0       0       0       0       0       0       0       0
  3085 ;;      Locals:         2       0       0       0       0       0       0       0       0
  3086 ;;      Temps:          0       0       0       0       0       0       0       0       0
  3087 ;;      Totals:         4       0       0       0       0       0       0       0       0
  3088 ;;Total ram usage:        4 bytes
  3089 ;; Hardware stack levels used:    1
  3090 ;; Hardware stack levels required when called:    2
  3091 ;; This function calls:
  3092 ;;		i2___ftadd
  3093 ;;		i2___ftdiv
  3094 ;;		i2___ftneg
  3095 ;;		i2___fttol
  3096 ;;		i2___lwtoft
  3097 ;; This function is called by:
  3098 ;;		_high_isr
  3099 ;; This function uses a non-reentrant model
  3100 ;;
  3101                           
  3102                           	psect	text17
  3103  001E9A                     __ptext17:
  3104                           	opt stack 0
  3105  001E9A                     i2_start_TMR0ms:
  3106                           	opt stack 23
  3107                           
  3108                           ;timers.h: 102: unsigned int temp_time;
  3109                           ;timers.h: 104: if (milliseconds > 4000){
  3110                           
  3111                           ;incstack = 0
  3112  001E9A  0EA1               	movlw	161
  3113  001E9C  5C39               	subwf	i2start_TMR0ms@milliseconds,w,c
  3114  001E9E  0E0F               	movlw	15
  3115  001EA0  583A               	subwfb	i2start_TMR0ms@milliseconds+1,w,c
  3116  001EA2  A0D8               	btfss	status,0,c
  3117  001EA4  D005               	goto	i2l1763
  3118                           
  3119                           ;timers.h: 105: TMR0H = 0;
  3120  001EA6  0E00               	movlw	0
  3121  001EA8  6ED7               	movwf	4055,c	;volatile
  3122                           
  3123                           ;timers.h: 106: TMR0L = 0;
  3124  001EAA  0E00               	movlw	0
  3125  001EAC  6ED6               	movwf	4054,c	;volatile
  3126                           
  3127                           ;timers.h: 107: }
  3128  001EAE  D03A               	goto	i2l1769
  3129  001EB0                     i2l1763:
  3130                           
  3131                           ;timers.h: 108: else{
  3132                           ;timers.h: 115: temp_time = (unsigned int)(65536 - (milliseconds / 0.064));
  3133  001EB0  0E00               	movlw	0
  3134  001EB2  6E21               	movwf	i2___ftadd@f2,c
  3135  001EB4  0E80               	movlw	128
  3136  001EB6  6E22               	movwf	i2___ftadd@f2+1,c
  3137  001EB8  0E47               	movlw	71
  3138  001EBA  6E23               	movwf	i2___ftadd@f2+2,c
  3139  001EBC  0E12               	movlw	18
  3140  001EBE  6E0F               	movwf	i2___ftdiv@f2,c
  3141  001EC0  0E83               	movlw	131
  3142  001EC2  6E10               	movwf	i2___ftdiv@f2+1,c
  3143  001EC4  0E3D               	movlw	61
  3144  001EC6  6E11               	movwf	i2___ftdiv@f2+2,c
  3145  001EC8  C039  F009         	movff	i2start_TMR0ms@milliseconds,i2___lwtoft@c
  3146  001ECC  C03A  F00A         	movff	i2start_TMR0ms@milliseconds+1,i2___lwtoft@c+1
  3147  001ED0  EC34  F010         	call	i2___lwtoft	;wreg free
  3148  001ED4  C009  F00C         	movff	?i2___lwtoft,i2___ftdiv@f1
  3149  001ED8  C00A  F00D         	movff	?i2___lwtoft+1,i2___ftdiv@f1+1
  3150  001EDC  C00B  F00E         	movff	?i2___lwtoft+2,i2___ftdiv@f1+2
  3151  001EE0  ECA7  F00C         	call	i2___ftdiv	;wreg free
  3152  001EE4  C00C  F01B         	movff	?i2___ftdiv,i2___ftneg@f1
  3153  001EE8  C00D  F01C         	movff	?i2___ftdiv+1,i2___ftneg@f1+1
  3154  001EEC  C00E  F01D         	movff	?i2___ftdiv+2,i2___ftneg@f1+2
  3155  001EF0  EC46  F010         	call	i2___ftneg	;wreg free
  3156  001EF4  C01B  F01E         	movff	?i2___ftneg,i2___ftadd@f1
  3157  001EF8  C01C  F01F         	movff	?i2___ftneg+1,i2___ftadd@f1+1
  3158  001EFC  C01D  F020         	movff	?i2___ftneg+2,i2___ftadd@f1+2
  3159  001F00  EC89  F009         	call	i2___ftadd	;wreg free
  3160  001F04  C01E  F02A         	movff	?i2___ftadd,i2___fttol@f1
  3161  001F08  C01F  F02B         	movff	?i2___ftadd+1,i2___fttol@f1+1
  3162  001F0C  C020  F02C         	movff	?i2___ftadd+2,i2___fttol@f1+2
  3163  001F10  EC2D  F00C         	call	i2___fttol	;wreg free
  3164  001F14  C02A  F03B         	movff	?i2___fttol,i2start_TMR0ms@temp_time
  3165  001F18  C02B  F03C         	movff	?i2___fttol+1,i2start_TMR0ms@temp_time+1
  3166                           
  3167                           ;timers.h: 116: TMR0H = (unsigned char)(temp_time / 256);
  3168  001F1C  503C               	movf	i2start_TMR0ms@temp_time+1,w,c
  3169  001F1E  6ED7               	movwf	4055,c	;volatile
  3170                           
  3171                           ;timers.h: 117: TMR0L = (unsigned char)temp_time;
  3172  001F20  C03B  FFD6         	movff	i2start_TMR0ms@temp_time,4054	;volatile
  3173  001F24                     i2l1769:
  3174                           
  3175                           ;timers.h: 120: }
  3176                           ;timers.h: 122: T0CONbits.TMR0ON = 1;
  3177  001F24  8ED5               	bsf	4053,7,c	;volatile
  3178  001F26  0012               	return		;funcret
  3179  001F28                     __end_ofi2_start_TMR0ms:
  3180                           	opt stack 0
  3181                           pclatu	equ	0xFFB
  3182                           pclath	equ	0xFFA
  3183                           tblptru	equ	0xFF8
  3184                           tblptrh	equ	0xFF7
  3185                           tblptrl	equ	0xFF6
  3186                           tablat	equ	0xFF5
  3187                           prodh	equ	0xFF4
  3188                           prodl	equ	0xFF3
  3189                           intcon	equ	0xFF2
  3190                           fsr0h	equ	0xFEA
  3191                           fsr0l	equ	0xFE9
  3192                           wreg	equ	0xFE8
  3193                           fsr1h	equ	0xFE2
  3194                           fsr1l	equ	0xFE1
  3195                           bsr	equ	0xFE0
  3196                           fsr2h	equ	0xFDA
  3197                           fsr2l	equ	0xFD9
  3198                           status	equ	0xFD8
  3199                           
  3200 ;; *************** function i2___lwtoft *****************
  3201 ;; Defined at:
  3202 ;;		line 28 in file "C:\Program Files (x86)\Microchip\xc8\v1.42\sources\common\lwtoft.c"
  3203 ;; Parameters:    Size  Location     Type
  3204 ;;  c               2    8[COMRAM] unsigned int 
  3205 ;; Auto vars:     Size  Location     Type
  3206 ;;		None
  3207 ;; Return value:  Size  Location     Type
  3208 ;;                  3    8[COMRAM] float 
  3209 ;; Registers used:
  3210 ;;		wreg, status,2, status,0, cstack
  3211 ;; Tracked objects:
  3212 ;;		On entry : 0/0
  3213 ;;		On exit  : 0/0
  3214 ;;		Unchanged: 0/0
  3215 ;; Data sizes:     COMRAM   BANK0   BANK1   BANK2   BANK3   BANK4   BANK5   BANK6   BANK7
  3216 ;;      Params:         3       0       0       0       0       0       0       0       0
  3217 ;;      Locals:         0       0       0       0       0       0       0       0       0
  3218 ;;      Temps:          0       0       0       0       0       0       0       0       0
  3219 ;;      Totals:         3       0       0       0       0       0       0       0       0
  3220 ;;Total ram usage:        3 bytes
  3221 ;; Hardware stack levels used:    1
  3222 ;; Hardware stack levels required when called:    1
  3223 ;; This function calls:
  3224 ;;		i2___ftpack
  3225 ;; This function is called by:
  3226 ;;		i2_start_TMR0ms
  3227 ;;		i2_start_TMR1ms
  3228 ;;		i2_start_TMR3ms
  3229 ;; This function uses a non-reentrant model
  3230 ;;
  3231                           
  3232                           	psect	text18
  3233  002068                     __ptext18:
  3234                           	opt stack 0
  3235  002068                     i2___lwtoft:
  3236                           	opt stack 23
  3237                           
  3238                           ;incstack = 0
  3239  002068  C009  F001         	movff	i2___lwtoft@c,i2___ftpack@arg
  3240  00206C  C00A  F002         	movff	i2___lwtoft@c+1,i2___ftpack@arg+1
  3241  002070  6A03               	clrf	i2___ftpack@arg+2,c
  3242  002072  0E8E               	movlw	142
  3243  002074  6E04               	movwf	i2___ftpack@exp,c
  3244  002076  0E00               	movlw	0
  3245  002078  6E05               	movwf	i2___ftpack@sign,c
  3246  00207A  EC78  F00D         	call	i2___ftpack	;wreg free
  3247  00207E  C001  F009         	movff	?i2___ftpack,?i2___lwtoft
  3248  002082  C002  F00A         	movff	?i2___ftpack+1,?i2___lwtoft+1
  3249  002086  C003  F00B         	movff	?i2___ftpack+2,?i2___lwtoft+2
  3250  00208A  0012               	return	
  3251  00208C                     __end_ofi2___lwtoft:
  3252                           	opt stack 0
  3253                           pclatu	equ	0xFFB
  3254                           pclath	equ	0xFFA
  3255                           tblptru	equ	0xFF8
  3256                           tblptrh	equ	0xFF7
  3257                           tblptrl	equ	0xFF6
  3258                           tablat	equ	0xFF5
  3259                           prodh	equ	0xFF4
  3260                           prodl	equ	0xFF3
  3261                           intcon	equ	0xFF2
  3262                           fsr0h	equ	0xFEA
  3263                           fsr0l	equ	0xFE9
  3264                           wreg	equ	0xFE8
  3265                           fsr1h	equ	0xFE2
  3266                           fsr1l	equ	0xFE1
  3267                           bsr	equ	0xFE0
  3268                           fsr2h	equ	0xFDA
  3269                           fsr2l	equ	0xFD9
  3270                           status	equ	0xFD8
  3271                           
  3272 ;; *************** function i2___fttol *****************
  3273 ;; Defined at:
  3274 ;;		line 44 in file "C:\Program Files (x86)\Microchip\xc8\v1.42\sources\common\fttol.c"
  3275 ;; Parameters:    Size  Location     Type
  3276 ;;  f1              3   41[COMRAM] float 
  3277 ;; Auto vars:     Size  Location     Type
  3278 ;;  __fttol         4   51[COMRAM] unsigned long 
  3279 ;;  __fttol         1   55[COMRAM] unsigned char 
  3280 ;;  __fttol         1   50[COMRAM] unsigned char 
  3281 ;; Return value:  Size  Location     Type
  3282 ;;                  4   41[COMRAM] long 
  3283 ;; Registers used:
  3284 ;;		wreg, status,2, status,0
  3285 ;; Tracked objects:
  3286 ;;		On entry : 0/0
  3287 ;;		On exit  : 0/0
  3288 ;;		Unchanged: 0/0
  3289 ;; Data sizes:     COMRAM   BANK0   BANK1   BANK2   BANK3   BANK4   BANK5   BANK6   BANK7
  3290 ;;      Params:         4       0       0       0       0       0       0       0       0
  3291 ;;      Locals:         6       0       0       0       0       0       0       0       0
  3292 ;;      Temps:          5       0       0       0       0       0       0       0       0
  3293 ;;      Totals:        15       0       0       0       0       0       0       0       0
  3294 ;;Total ram usage:       15 bytes
  3295 ;; Hardware stack levels used:    1
  3296 ;; This function calls:
  3297 ;;		Nothing
  3298 ;; This function is called by:
  3299 ;;		i2_start_TMR0ms
  3300 ;;		i2_start_TMR1ms
  3301 ;;		i2_start_TMR3ms
  3302 ;; This function uses a non-reentrant model
  3303 ;;
  3304                           
  3305                           	psect	text19
  3306  00185A                     __ptext19:
  3307                           	opt stack 0
  3308  00185A                     i2___fttol:
  3309                           	opt stack 24
  3310                           
  3311                           ;incstack = 0
  3312  00185A  C02C  F02E         	movff	i2___fttol@f1+2,??i2___fttol
  3313  00185E  6A2F               	clrf	(??i2___fttol+1)& (0+255),c
  3314  001860  6A30               	clrf	(??i2___fttol+2)& (0+255),c
  3315  001862  342B               	rlcf	i2___fttol@f1+1,w,c
  3316  001864  362E               	rlcf	??i2___fttol& (0+255),f,c
  3317  001866  E301               	bnc	u180_41
  3318  001868  802F               	bsf	(??i2___fttol+1)& (0+255),0,c
  3319  00186A                     u180_41:
  3320  00186A  502E               	movf	??i2___fttol,w,c
  3321  00186C  6E38               	movwf	i2___fttol@exp1,c
  3322  00186E  5038               	movf	i2___fttol@exp1,w,c
  3323  001870  A4D8               	btfss	status,2,c
  3324  001872  D009               	goto	i2l1649
  3325  001874  0E00               	movlw	0
  3326  001876  6E2A               	movwf	?i2___fttol,c
  3327  001878  0E00               	movlw	0
  3328  00187A  6E2B               	movwf	?i2___fttol+1,c
  3329  00187C  0E00               	movlw	0
  3330  00187E  6E2C               	movwf	?i2___fttol+2,c
  3331  001880  0E00               	movlw	0
  3332  001882  6E2D               	movwf	?i2___fttol+3,c
  3333  001884  0012               	return	
  3334  001886                     i2l1649:
  3335  001886  0E17               	movlw	23
  3336  001888  6E2E               	movwf	??i2___fttol& (0+255),c
  3337  00188A  C02A  F02F         	movff	i2___fttol@f1,??i2___fttol+1
  3338  00188E  C02B  F030         	movff	i2___fttol@f1+1,??i2___fttol+2
  3339  001892  C02C  F031         	movff	i2___fttol@f1+2,??i2___fttol+3
  3340  001896  282E               	incf	??i2___fttol,w,c
  3341  001898  6E32               	movwf	(??i2___fttol+4)& (0+255),c
  3342  00189A  D004               	goto	i2u182_40
  3343  00189C                     i2u182_45:
  3344  00189C  90D8               	bcf	status,0,c
  3345  00189E  3231               	rrcf	??i2___fttol+3,f,c
  3346  0018A0  3230               	rrcf	??i2___fttol+2,f,c
  3347  0018A2  322F               	rrcf	??i2___fttol+1,f,c
  3348  0018A4                     i2u182_40:
  3349  0018A4  2E32               	decfsz	(??i2___fttol+4)& (0+255),f,c
  3350  0018A6  D7FA               	goto	i2u182_45
  3351  0018A8  502F               	movf	??i2___fttol+1,w,c
  3352  0018AA  6E33               	movwf	i2___fttol@sign1,c
  3353  0018AC  8E2B               	bsf	i2___fttol@f1+1,7,c
  3354  0018AE  0EFF               	movlw	255
  3355  0018B0  162A               	andwf	i2___fttol@f1,f,c
  3356  0018B2  0EFF               	movlw	255
  3357  0018B4  162B               	andwf	i2___fttol@f1+1,f,c
  3358  0018B6  0E00               	movlw	0
  3359  0018B8  162C               	andwf	i2___fttol@f1+2,f,c
  3360  0018BA  502A               	movf	i2___fttol@f1,w,c
  3361  0018BC  6E34               	movwf	i2___fttol@lval,c
  3362  0018BE  502B               	movf	i2___fttol@f1+1,w,c
  3363  0018C0  6E35               	movwf	i2___fttol@lval+1,c
  3364  0018C2  502C               	movf	i2___fttol@f1+2,w,c
  3365  0018C4  6E36               	movwf	i2___fttol@lval+2,c
  3366  0018C6  6A37               	clrf	i2___fttol@lval+3,c
  3367  0018C8  0E8E               	movlw	142
  3368  0018CA  5E38               	subwf	i2___fttol@exp1,f,c
  3369  0018CC  AE38               	btfss	i2___fttol@exp1,7,c
  3370  0018CE  D016               	goto	i2l1671
  3371  0018D0  5038               	movf	i2___fttol@exp1,w,c
  3372  0018D2  0A80               	xorlw	128
  3373  0018D4  0F8F               	addlw	143
  3374  0018D6  B0D8               	btfsc	status,0,c
  3375  0018D8  D009               	goto	i2l1667
  3376  0018DA  0E00               	movlw	0
  3377  0018DC  6E2A               	movwf	?i2___fttol,c
  3378  0018DE  0E00               	movlw	0
  3379  0018E0  6E2B               	movwf	?i2___fttol+1,c
  3380  0018E2  0E00               	movlw	0
  3381  0018E4  6E2C               	movwf	?i2___fttol+2,c
  3382  0018E6  0E00               	movlw	0
  3383  0018E8  6E2D               	movwf	?i2___fttol+3,c
  3384  0018EA  0012               	return	
  3385  0018EC                     i2l1667:
  3386  0018EC  90D8               	bcf	status,0,c
  3387  0018EE  3237               	rrcf	i2___fttol@lval+3,f,c
  3388  0018F0  3236               	rrcf	i2___fttol@lval+2,f,c
  3389  0018F2  3235               	rrcf	i2___fttol@lval+1,f,c
  3390  0018F4  3234               	rrcf	i2___fttol@lval,f,c
  3391  0018F6  3E38               	incfsz	i2___fttol@exp1,f,c
  3392  0018F8  D7F9               	goto	i2l1667
  3393  0018FA  D015               	goto	i2l1681
  3394  0018FC                     i2l1671:
  3395  0018FC  0E17               	movlw	23
  3396  0018FE  6438               	cpfsgt	i2___fttol@exp1,c
  3397  001900  D00F               	goto	i2l1679
  3398  001902  0E00               	movlw	0
  3399  001904  6E2A               	movwf	?i2___fttol,c
  3400  001906  0E00               	movlw	0
  3401  001908  6E2B               	movwf	?i2___fttol+1,c
  3402  00190A  0E00               	movlw	0
  3403  00190C  6E2C               	movwf	?i2___fttol+2,c
  3404  00190E  0E00               	movlw	0
  3405  001910  6E2D               	movwf	?i2___fttol+3,c
  3406  001912  0012               	return	
  3407  001914                     i2l1677:
  3408  001914  90D8               	bcf	status,0,c
  3409  001916  3634               	rlcf	i2___fttol@lval,f,c
  3410  001918  3635               	rlcf	i2___fttol@lval+1,f,c
  3411  00191A  3636               	rlcf	i2___fttol@lval+2,f,c
  3412  00191C  3637               	rlcf	i2___fttol@lval+3,f,c
  3413  00191E  0638               	decf	i2___fttol@exp1,f,c
  3414  001920                     i2l1679:
  3415  001920  5038               	movf	i2___fttol@exp1,w,c
  3416  001922  A4D8               	btfss	status,2,c
  3417  001924  D7F7               	goto	i2l1677
  3418  001926                     i2l1681:
  3419  001926  5033               	movf	i2___fttol@sign1,w,c
  3420  001928  B4D8               	btfsc	status,2,c
  3421  00192A  D008               	goto	i2l1685
  3422  00192C  1E37               	comf	i2___fttol@lval+3,f,c
  3423  00192E  1E36               	comf	i2___fttol@lval+2,f,c
  3424  001930  1E35               	comf	i2___fttol@lval+1,f,c
  3425  001932  6C34               	negf	i2___fttol@lval,c
  3426  001934  0E00               	movlw	0
  3427  001936  2235               	addwfc	i2___fttol@lval+1,f,c
  3428  001938  2236               	addwfc	i2___fttol@lval+2,f,c
  3429  00193A  2237               	addwfc	i2___fttol@lval+3,f,c
  3430  00193C                     i2l1685:
  3431  00193C  C034  F02A         	movff	i2___fttol@lval,?i2___fttol
  3432  001940  C035  F02B         	movff	i2___fttol@lval+1,?i2___fttol+1
  3433  001944  C036  F02C         	movff	i2___fttol@lval+2,?i2___fttol+2
  3434  001948  C037  F02D         	movff	i2___fttol@lval+3,?i2___fttol+3
  3435  00194C  0012               	return	
  3436  00194E                     __end_ofi2___fttol:
  3437                           	opt stack 0
  3438                           pclatu	equ	0xFFB
  3439                           pclath	equ	0xFFA
  3440                           tblptru	equ	0xFF8
  3441                           tblptrh	equ	0xFF7
  3442                           tblptrl	equ	0xFF6
  3443                           tablat	equ	0xFF5
  3444                           prodh	equ	0xFF4
  3445                           prodl	equ	0xFF3
  3446                           intcon	equ	0xFF2
  3447                           fsr0h	equ	0xFEA
  3448                           fsr0l	equ	0xFE9
  3449                           wreg	equ	0xFE8
  3450                           fsr1h	equ	0xFE2
  3451                           fsr1l	equ	0xFE1
  3452                           bsr	equ	0xFE0
  3453                           fsr2h	equ	0xFDA
  3454                           fsr2l	equ	0xFD9
  3455                           status	equ	0xFD8
  3456                           
  3457 ;; *************** function i2___ftneg *****************
  3458 ;; Defined at:
  3459 ;;		line 15 in file "C:\Program Files (x86)\Microchip\xc8\v1.42\sources\common\ftneg.c"
  3460 ;; Parameters:    Size  Location     Type
  3461 ;;  f1              3   26[COMRAM] float 
  3462 ;; Auto vars:     Size  Location     Type
  3463 ;;		None
  3464 ;; Return value:  Size  Location     Type
  3465 ;;                  3   26[COMRAM] float 
  3466 ;; Registers used:
  3467 ;;		wreg, status,2, status,0
  3468 ;; Tracked objects:
  3469 ;;		On entry : 0/0
  3470 ;;		On exit  : 0/0
  3471 ;;		Unchanged: 0/0
  3472 ;; Data sizes:     COMRAM   BANK0   BANK1   BANK2   BANK3   BANK4   BANK5   BANK6   BANK7
  3473 ;;      Params:         3       0       0       0       0       0       0       0       0
  3474 ;;      Locals:         0       0       0       0       0       0       0       0       0
  3475 ;;      Temps:          0       0       0       0       0       0       0       0       0
  3476 ;;      Totals:         3       0       0       0       0       0       0       0       0
  3477 ;;Total ram usage:        3 bytes
  3478 ;; Hardware stack levels used:    1
  3479 ;; This function calls:
  3480 ;;		Nothing
  3481 ;; This function is called by:
  3482 ;;		i2_start_TMR0ms
  3483 ;;		i2_start_TMR1ms
  3484 ;;		i2_start_TMR3ms
  3485 ;; This function uses a non-reentrant model
  3486 ;;
  3487                           
  3488                           	psect	text20
  3489  00208C                     __ptext20:
  3490                           	opt stack 0
  3491  00208C                     i2___ftneg:
  3492                           	opt stack 24
  3493                           
  3494                           ;incstack = 0
  3495  00208C  501B               	movf	i2___ftneg@f1,w,c
  3496  00208E  101C               	iorwf	i2___ftneg@f1+1,w,c
  3497  002090  101D               	iorwf	i2___ftneg@f1+2,w,c
  3498  002092  B4D8               	btfsc	status,2,c
  3499  002094  D006               	goto	i2l408
  3500  002096  0E00               	movlw	0
  3501  002098  1A1B               	xorwf	i2___ftneg@f1,f,c
  3502  00209A  0E00               	movlw	0
  3503  00209C  1A1C               	xorwf	i2___ftneg@f1+1,f,c
  3504  00209E  0E80               	movlw	128
  3505  0020A0  1A1D               	xorwf	i2___ftneg@f1+2,f,c
  3506  0020A2                     i2l408:
  3507  0020A2  C01B  F01B         	movff	i2___ftneg@f1,?i2___ftneg
  3508  0020A6  C01C  F01C         	movff	i2___ftneg@f1+1,?i2___ftneg+1
  3509  0020AA  C01D  F01D         	movff	i2___ftneg@f1+2,?i2___ftneg+2
  3510  0020AE  0012               	return		;funcret
  3511  0020B0                     __end_ofi2___ftneg:
  3512                           	opt stack 0
  3513                           pclatu	equ	0xFFB
  3514                           pclath	equ	0xFFA
  3515                           tblptru	equ	0xFF8
  3516                           tblptrh	equ	0xFF7
  3517                           tblptrl	equ	0xFF6
  3518                           tablat	equ	0xFF5
  3519                           prodh	equ	0xFF4
  3520                           prodl	equ	0xFF3
  3521                           intcon	equ	0xFF2
  3522                           fsr0h	equ	0xFEA
  3523                           fsr0l	equ	0xFE9
  3524                           wreg	equ	0xFE8
  3525                           fsr1h	equ	0xFE2
  3526                           fsr1l	equ	0xFE1
  3527                           bsr	equ	0xFE0
  3528                           fsr2h	equ	0xFDA
  3529                           fsr2l	equ	0xFD9
  3530                           status	equ	0xFD8
  3531                           
  3532 ;; *************** function i2___ftdiv *****************
  3533 ;; Defined at:
  3534 ;;		line 54 in file "C:\Program Files (x86)\Microchip\xc8\v1.42\sources\common\ftdiv.c"
  3535 ;; Parameters:    Size  Location     Type
  3536 ;;  f1              3   11[COMRAM] float 
  3537 ;;  f2              3   14[COMRAM] float 
  3538 ;; Auto vars:     Size  Location     Type
  3539 ;;  __ftdiv         3   21[COMRAM] float 
  3540 ;;  __ftdiv         1   25[COMRAM] unsigned char 
  3541 ;;  __ftdiv         1   24[COMRAM] unsigned char 
  3542 ;;  __ftdiv         1   20[COMRAM] unsigned char 
  3543 ;; Return value:  Size  Location     Type
  3544 ;;                  3   11[COMRAM] float 
  3545 ;; Registers used:
  3546 ;;		wreg, status,2, status,0, cstack
  3547 ;; Tracked objects:
  3548 ;;		On entry : 0/0
  3549 ;;		On exit  : 0/0
  3550 ;;		Unchanged: 0/0
  3551 ;; Data sizes:     COMRAM   BANK0   BANK1   BANK2   BANK3   BANK4   BANK5   BANK6   BANK7
  3552 ;;      Params:         6       0       0       0       0       0       0       0       0
  3553 ;;      Locals:         6       0       0       0       0       0       0       0       0
  3554 ;;      Temps:          3       0       0       0       0       0       0       0       0
  3555 ;;      Totals:        15       0       0       0       0       0       0       0       0
  3556 ;;Total ram usage:       15 bytes
  3557 ;; Hardware stack levels used:    1
  3558 ;; Hardware stack levels required when called:    1
  3559 ;; This function calls:
  3560 ;;		i2___ftpack
  3561 ;; This function is called by:
  3562 ;;		i2_start_TMR0ms
  3563 ;;		i2_start_TMR1ms
  3564 ;;		i2_start_TMR3ms
  3565 ;; This function uses a non-reentrant model
  3566 ;;
  3567                           
  3568                           	psect	text21
  3569  00194E                     __ptext21:
  3570                           	opt stack 0
  3571  00194E                     i2___ftdiv:
  3572                           	opt stack 23
  3573                           
  3574                           ;incstack = 0
  3575  00194E  C00E  F012         	movff	i2___ftdiv@f1+2,??i2___ftdiv
  3576  001952  6A13               	clrf	(??i2___ftdiv+1)& (0+255),c
  3577  001954  6A14               	clrf	(??i2___ftdiv+2)& (0+255),c
  3578  001956  340D               	rlcf	i2___ftdiv@f1+1,w,c
  3579  001958  3612               	rlcf	??i2___ftdiv& (0+255),f,c
  3580  00195A  E301               	bnc	u174_41
  3581  00195C  8013               	bsf	(??i2___ftdiv+1)& (0+255),0,c
  3582  00195E                     u174_41:
  3583  00195E  5012               	movf	??i2___ftdiv,w,c
  3584  001960  6E19               	movwf	i2___ftdiv@exp,c
  3585  001962  5019               	movf	i2___ftdiv@exp,w,c
  3586  001964  A4D8               	btfss	status,2,c
  3587  001966  D007               	goto	i2l1599
  3588  001968  0E00               	movlw	0
  3589  00196A  6E0C               	movwf	?i2___ftdiv,c
  3590  00196C  0E00               	movlw	0
  3591  00196E  6E0D               	movwf	?i2___ftdiv+1,c
  3592  001970  0E00               	movlw	0
  3593  001972  6E0E               	movwf	?i2___ftdiv+2,c
  3594  001974  0012               	return	
  3595  001976                     i2l1599:
  3596  001976  C011  F012         	movff	i2___ftdiv@f2+2,??i2___ftdiv
  3597  00197A  6A13               	clrf	(??i2___ftdiv+1)& (0+255),c
  3598  00197C  6A14               	clrf	(??i2___ftdiv+2)& (0+255),c
  3599  00197E  3410               	rlcf	i2___ftdiv@f2+1,w,c
  3600  001980  3612               	rlcf	??i2___ftdiv& (0+255),f,c
  3601  001982  E301               	bnc	u176_41
  3602  001984  8013               	bsf	(??i2___ftdiv+1)& (0+255),0,c
  3603  001986                     u176_41:
  3604  001986  5012               	movf	??i2___ftdiv,w,c
  3605  001988  6E1A               	movwf	i2___ftdiv@sign,c
  3606  00198A  501A               	movf	i2___ftdiv@sign,w,c
  3607  00198C  A4D8               	btfss	status,2,c
  3608  00198E  D007               	goto	i2l1605
  3609  001990  0E00               	movlw	0
  3610  001992  6E0C               	movwf	?i2___ftdiv,c
  3611  001994  0E00               	movlw	0
  3612  001996  6E0D               	movwf	?i2___ftdiv+1,c
  3613  001998  0E00               	movlw	0
  3614  00199A  6E0E               	movwf	?i2___ftdiv+2,c
  3615  00199C  0012               	return	
  3616  00199E                     i2l1605:
  3617  00199E  0E00               	movlw	0
  3618  0019A0  6E16               	movwf	i2___ftdiv@f3,c
  3619  0019A2  0E00               	movlw	0
  3620  0019A4  6E17               	movwf	i2___ftdiv@f3+1,c
  3621  0019A6  0E00               	movlw	0
  3622  0019A8  6E18               	movwf	i2___ftdiv@f3+2,c
  3623  0019AA  501A               	movf	i2___ftdiv@sign,w,c
  3624  0019AC  0F89               	addlw	137
  3625  0019AE  5E19               	subwf	i2___ftdiv@exp,f,c
  3626  0019B0  C00E  F01A         	movff	i2___ftdiv@f1+2,i2___ftdiv@sign
  3627  0019B4  5011               	movf	i2___ftdiv@f2+2,w,c
  3628  0019B6  1A1A               	xorwf	i2___ftdiv@sign,f,c
  3629  0019B8  0E80               	movlw	128
  3630  0019BA  161A               	andwf	i2___ftdiv@sign,f,c
  3631  0019BC  8E0D               	bsf	i2___ftdiv@f1+1,7,c
  3632  0019BE  0EFF               	movlw	255
  3633  0019C0  160C               	andwf	i2___ftdiv@f1,f,c
  3634  0019C2  0EFF               	movlw	255
  3635  0019C4  160D               	andwf	i2___ftdiv@f1+1,f,c
  3636  0019C6  0E00               	movlw	0
  3637  0019C8  160E               	andwf	i2___ftdiv@f1+2,f,c
  3638  0019CA  8E10               	bsf	i2___ftdiv@f2+1,7,c
  3639  0019CC  0EFF               	movlw	255
  3640  0019CE  160F               	andwf	i2___ftdiv@f2,f,c
  3641  0019D0  0EFF               	movlw	255
  3642  0019D2  1610               	andwf	i2___ftdiv@f2+1,f,c
  3643  0019D4  0E00               	movlw	0
  3644  0019D6  1611               	andwf	i2___ftdiv@f2+2,f,c
  3645  0019D8  0E18               	movlw	24
  3646  0019DA  6E15               	movwf	i2___ftdiv@cntr,c
  3647  0019DC                     i2l1625:
  3648  0019DC  90D8               	bcf	status,0,c
  3649  0019DE  3616               	rlcf	i2___ftdiv@f3,f,c
  3650  0019E0  3617               	rlcf	i2___ftdiv@f3+1,f,c
  3651  0019E2  3618               	rlcf	i2___ftdiv@f3+2,f,c
  3652  0019E4  500F               	movf	i2___ftdiv@f2,w,c
  3653  0019E6  5C0C               	subwf	i2___ftdiv@f1,w,c
  3654  0019E8  5010               	movf	i2___ftdiv@f2+1,w,c
  3655  0019EA  580D               	subwfb	i2___ftdiv@f1+1,w,c
  3656  0019EC  5011               	movf	i2___ftdiv@f2+2,w,c
  3657  0019EE  580E               	subwfb	i2___ftdiv@f1+2,w,c
  3658  0019F0  A0D8               	btfss	status,0,c
  3659  0019F2  D007               	goto	i2l386
  3660  0019F4  500F               	movf	i2___ftdiv@f2,w,c
  3661  0019F6  5E0C               	subwf	i2___ftdiv@f1,f,c
  3662  0019F8  5010               	movf	i2___ftdiv@f2+1,w,c
  3663  0019FA  5A0D               	subwfb	i2___ftdiv@f1+1,f,c
  3664  0019FC  5011               	movf	i2___ftdiv@f2+2,w,c
  3665  0019FE  5A0E               	subwfb	i2___ftdiv@f1+2,f,c
  3666  001A00  8016               	bsf	i2___ftdiv@f3,0,c
  3667  001A02                     i2l386:
  3668  001A02  90D8               	bcf	status,0,c
  3669  001A04  360C               	rlcf	i2___ftdiv@f1,f,c
  3670  001A06  360D               	rlcf	i2___ftdiv@f1+1,f,c
  3671  001A08  360E               	rlcf	i2___ftdiv@f1+2,f,c
  3672  001A0A  2E15               	decfsz	i2___ftdiv@cntr,f,c
  3673  001A0C  D7E7               	goto	i2l1625
  3674  001A0E  C016  F001         	movff	i2___ftdiv@f3,i2___ftpack@arg
  3675  001A12  C017  F002         	movff	i2___ftdiv@f3+1,i2___ftpack@arg+1
  3676  001A16  C018  F003         	movff	i2___ftdiv@f3+2,i2___ftpack@arg+2
  3677  001A1A  C019  F004         	movff	i2___ftdiv@exp,i2___ftpack@exp
  3678  001A1E  C01A  F005         	movff	i2___ftdiv@sign,i2___ftpack@sign
  3679  001A22  EC78  F00D         	call	i2___ftpack	;wreg free
  3680  001A26  C001  F00C         	movff	?i2___ftpack,?i2___ftdiv
  3681  001A2A  C002  F00D         	movff	?i2___ftpack+1,?i2___ftdiv+1
  3682  001A2E  C003  F00E         	movff	?i2___ftpack+2,?i2___ftdiv+2
  3683  001A32  0012               	return	
  3684  001A34                     __end_ofi2___ftdiv:
  3685                           	opt stack 0
  3686                           pclatu	equ	0xFFB
  3687                           pclath	equ	0xFFA
  3688                           tblptru	equ	0xFF8
  3689                           tblptrh	equ	0xFF7
  3690                           tblptrl	equ	0xFF6
  3691                           tablat	equ	0xFF5
  3692                           prodh	equ	0xFF4
  3693                           prodl	equ	0xFF3
  3694                           intcon	equ	0xFF2
  3695                           fsr0h	equ	0xFEA
  3696                           fsr0l	equ	0xFE9
  3697                           wreg	equ	0xFE8
  3698                           fsr1h	equ	0xFE2
  3699                           fsr1l	equ	0xFE1
  3700                           bsr	equ	0xFE0
  3701                           fsr2h	equ	0xFDA
  3702                           fsr2l	equ	0xFD9
  3703                           status	equ	0xFD8
  3704                           
  3705 ;; *************** function i2___ftadd *****************
  3706 ;; Defined at:
  3707 ;;		line 86 in file "C:\Program Files (x86)\Microchip\xc8\v1.42\sources\common\ftadd.c"
  3708 ;; Parameters:    Size  Location     Type
  3709 ;;  f1              3   29[COMRAM] float 
  3710 ;;  f2              3   32[COMRAM] float 
  3711 ;; Auto vars:     Size  Location     Type
  3712 ;;  __ftadd         1   40[COMRAM] unsigned char 
  3713 ;;  __ftadd         1   39[COMRAM] unsigned char 
  3714 ;;  __ftadd         1   38[COMRAM] unsigned char 
  3715 ;; Return value:  Size  Location     Type
  3716 ;;                  3   29[COMRAM] float 
  3717 ;; Registers used:
  3718 ;;		wreg, status,2, status,0, cstack
  3719 ;; Tracked objects:
  3720 ;;		On entry : 0/0
  3721 ;;		On exit  : 0/0
  3722 ;;		Unchanged: 0/0
  3723 ;; Data sizes:     COMRAM   BANK0   BANK1   BANK2   BANK3   BANK4   BANK5   BANK6   BANK7
  3724 ;;      Params:         6       0       0       0       0       0       0       0       0
  3725 ;;      Locals:         3       0       0       0       0       0       0       0       0
  3726 ;;      Temps:          3       0       0       0       0       0       0       0       0
  3727 ;;      Totals:        12       0       0       0       0       0       0       0       0
  3728 ;;Total ram usage:       12 bytes
  3729 ;; Hardware stack levels used:    1
  3730 ;; Hardware stack levels required when called:    1
  3731 ;; This function calls:
  3732 ;;		i2___ftpack
  3733 ;; This function is called by:
  3734 ;;		i2_start_TMR0ms
  3735 ;;		i2_start_TMR1ms
  3736 ;;		i2_start_TMR3ms
  3737 ;; This function uses a non-reentrant model
  3738 ;;
  3739                           
  3740                           	psect	text22
  3741  001312                     __ptext22:
  3742                           	opt stack 0
  3743  001312                     i2___ftadd:
  3744                           	opt stack 23
  3745                           
  3746                           ;incstack = 0
  3747  001312  C020  F024         	movff	i2___ftadd@f1+2,??i2___ftadd
  3748  001316  6A25               	clrf	(??i2___ftadd+1)& (0+255),c
  3749  001318  6A26               	clrf	(??i2___ftadd+2)& (0+255),c
  3750  00131A  341F               	rlcf	i2___ftadd@f1+1,w,c
  3751  00131C  3624               	rlcf	??i2___ftadd& (0+255),f,c
  3752  00131E  E301               	bnc	u153_41
  3753  001320  8025               	bsf	(??i2___ftadd+1)& (0+255),0,c
  3754  001322                     u153_41:
  3755  001322  5024               	movf	??i2___ftadd,w,c
  3756  001324  6E29               	movwf	i2___ftadd@exp1,c
  3757  001326  C023  F024         	movff	i2___ftadd@f2+2,??i2___ftadd
  3758  00132A  6A25               	clrf	(??i2___ftadd+1)& (0+255),c
  3759  00132C  6A26               	clrf	(??i2___ftadd+2)& (0+255),c
  3760  00132E  3422               	rlcf	i2___ftadd@f2+1,w,c
  3761  001330  3624               	rlcf	??i2___ftadd& (0+255),f,c
  3762  001332  E301               	bnc	u154_41
  3763  001334  8025               	bsf	(??i2___ftadd+1)& (0+255),0,c
  3764  001336                     u154_41:
  3765  001336  5024               	movf	??i2___ftadd,w,c
  3766  001338  6E28               	movwf	i2___ftadd@exp2,c
  3767  00133A  5029               	movf	i2___ftadd@exp1,w,c
  3768  00133C  B4D8               	btfsc	status,2,c
  3769  00133E  D00B               	goto	i2l351
  3770  001340  5028               	movf	i2___ftadd@exp2,w,c
  3771  001342  5C29               	subwf	i2___ftadd@exp1,w,c
  3772  001344  B0D8               	btfsc	status,0,c
  3773  001346  D00E               	goto	i2l1531
  3774  001348  5029               	movf	i2___ftadd@exp1,w,c
  3775  00134A  0800               	sublw	0
  3776  00134C  2428               	addwf	i2___ftadd@exp2,w,c
  3777  00134E  6E24               	movwf	??i2___ftadd& (0+255),c
  3778  001350  0E18               	movlw	24
  3779  001352  6424               	cpfsgt	??i2___ftadd,c
  3780  001354  D007               	goto	i2l1531
  3781  001356                     i2l351:
  3782  001356  C021  F01E         	movff	i2___ftadd@f2,?i2___ftadd
  3783  00135A  C022  F01F         	movff	i2___ftadd@f2+1,?i2___ftadd+1
  3784  00135E  C023  F020         	movff	i2___ftadd@f2+2,?i2___ftadd+2
  3785  001362  0012               	return	
  3786  001364                     i2l1531:
  3787  001364  5028               	movf	i2___ftadd@exp2,w,c
  3788  001366  B4D8               	btfsc	status,2,c
  3789  001368  D00B               	goto	i2l355
  3790  00136A  5029               	movf	i2___ftadd@exp1,w,c
  3791  00136C  5C28               	subwf	i2___ftadd@exp2,w,c
  3792  00136E  B0D8               	btfsc	status,0,c
  3793  001370  D00E               	goto	i2l1537
  3794  001372  5028               	movf	i2___ftadd@exp2,w,c
  3795  001374  0800               	sublw	0
  3796  001376  2429               	addwf	i2___ftadd@exp1,w,c
  3797  001378  6E24               	movwf	??i2___ftadd& (0+255),c
  3798  00137A  0E18               	movlw	24
  3799  00137C  6424               	cpfsgt	??i2___ftadd,c
  3800  00137E  D007               	goto	i2l1537
  3801  001380                     i2l355:
  3802  001380  C01E  F01E         	movff	i2___ftadd@f1,?i2___ftadd
  3803  001384  C01F  F01F         	movff	i2___ftadd@f1+1,?i2___ftadd+1
  3804  001388  C020  F020         	movff	i2___ftadd@f1+2,?i2___ftadd+2
  3805  00138C  0012               	return	
  3806  00138E                     i2l1537:
  3807  00138E  0E06               	movlw	6
  3808  001390  6E27               	movwf	i2___ftadd@sign,c
  3809  001392  BE20               	btfsc	i2___ftadd@f1+2,7,c
  3810  001394  8E27               	bsf	i2___ftadd@sign,7,c
  3811  001396  BE23               	btfsc	i2___ftadd@f2+2,7,c
  3812  001398  8C27               	bsf	i2___ftadd@sign,6,c
  3813  00139A  8E1F               	bsf	i2___ftadd@f1+1,7,c
  3814  00139C  0EFF               	movlw	255
  3815  00139E  161E               	andwf	i2___ftadd@f1,f,c
  3816  0013A0  0EFF               	movlw	255
  3817  0013A2  161F               	andwf	i2___ftadd@f1+1,f,c
  3818  0013A4  0E00               	movlw	0
  3819  0013A6  1620               	andwf	i2___ftadd@f1+2,f,c
  3820  0013A8  8E22               	bsf	i2___ftadd@f2+1,7,c
  3821  0013AA  0EFF               	movlw	255
  3822  0013AC  1621               	andwf	i2___ftadd@f2,f,c
  3823  0013AE  0EFF               	movlw	255
  3824  0013B0  1622               	andwf	i2___ftadd@f2+1,f,c
  3825  0013B2  0E00               	movlw	0
  3826  0013B4  1623               	andwf	i2___ftadd@f2+2,f,c
  3827  0013B6  5028               	movf	i2___ftadd@exp2,w,c
  3828  0013B8  5C29               	subwf	i2___ftadd@exp1,w,c
  3829  0013BA  B0D8               	btfsc	status,0,c
  3830  0013BC  D01B               	goto	i2l1563
  3831  0013BE                     i2l1553:
  3832  0013BE  90D8               	bcf	status,0,c
  3833  0013C0  3621               	rlcf	i2___ftadd@f2,f,c
  3834  0013C2  3622               	rlcf	i2___ftadd@f2+1,f,c
  3835  0013C4  3623               	rlcf	i2___ftadd@f2+2,f,c
  3836  0013C6  0628               	decf	i2___ftadd@exp2,f,c
  3837  0013C8  5029               	movf	i2___ftadd@exp1,w,c
  3838  0013CA  1828               	xorwf	i2___ftadd@exp2,w,c
  3839  0013CC  B4D8               	btfsc	status,2,c
  3840  0013CE  D00D               	goto	i2l1561
  3841  0013D0  0627               	decf	i2___ftadd@sign,f,c
  3842  0013D2  C027  F024         	movff	i2___ftadd@sign,??i2___ftadd
  3843  0013D6  0E07               	movlw	7
  3844  0013D8  1624               	andwf	??i2___ftadd,f,c
  3845  0013DA  B4D8               	btfsc	status,2,c
  3846  0013DC  D006               	goto	i2l1561
  3847  0013DE  D7EF               	goto	i2l1553
  3848  0013E0                     i2l1559:
  3849  0013E0  90D8               	bcf	status,0,c
  3850  0013E2  3220               	rrcf	i2___ftadd@f1+2,f,c
  3851  0013E4  321F               	rrcf	i2___ftadd@f1+1,f,c
  3852  0013E6  321E               	rrcf	i2___ftadd@f1,f,c
  3853  0013E8  2A29               	incf	i2___ftadd@exp1,f,c
  3854  0013EA                     i2l1561:
  3855  0013EA  5028               	movf	i2___ftadd@exp2,w,c
  3856  0013EC  1829               	xorwf	i2___ftadd@exp1,w,c
  3857  0013EE  B4D8               	btfsc	status,2,c
  3858  0013F0  D01F               	goto	i2l366
  3859  0013F2  D7F6               	goto	i2l1559
  3860  0013F4                     i2l1563:
  3861  0013F4  5029               	movf	i2___ftadd@exp1,w,c
  3862  0013F6  5C28               	subwf	i2___ftadd@exp2,w,c
  3863  0013F8  B0D8               	btfsc	status,0,c
  3864  0013FA  D01A               	goto	i2l366
  3865  0013FC                     i2l1565:
  3866  0013FC  90D8               	bcf	status,0,c
  3867  0013FE  361E               	rlcf	i2___ftadd@f1,f,c
  3868  001400  361F               	rlcf	i2___ftadd@f1+1,f,c
  3869  001402  3620               	rlcf	i2___ftadd@f1+2,f,c
  3870  001404  0629               	decf	i2___ftadd@exp1,f,c
  3871  001406  5029               	movf	i2___ftadd@exp1,w,c
  3872  001408  1828               	xorwf	i2___ftadd@exp2,w,c
  3873  00140A  B4D8               	btfsc	status,2,c
  3874  00140C  D00D               	goto	i2l1573
  3875  00140E  0627               	decf	i2___ftadd@sign,f,c
  3876  001410  C027  F024         	movff	i2___ftadd@sign,??i2___ftadd
  3877  001414  0E07               	movlw	7
  3878  001416  1624               	andwf	??i2___ftadd,f,c
  3879  001418  B4D8               	btfsc	status,2,c
  3880  00141A  D006               	goto	i2l1573
  3881  00141C  D7EF               	goto	i2l1565
  3882  00141E                     i2l1571:
  3883  00141E  90D8               	bcf	status,0,c
  3884  001420  3223               	rrcf	i2___ftadd@f2+2,f,c
  3885  001422  3222               	rrcf	i2___ftadd@f2+1,f,c
  3886  001424  3221               	rrcf	i2___ftadd@f2,f,c
  3887  001426  2A28               	incf	i2___ftadd@exp2,f,c
  3888  001428                     i2l1573:
  3889  001428  5028               	movf	i2___ftadd@exp2,w,c
  3890  00142A  1829               	xorwf	i2___ftadd@exp1,w,c
  3891  00142C  A4D8               	btfss	status,2,c
  3892  00142E  D7F7               	goto	i2l1571
  3893  001430                     i2l366:
  3894  001430  AE27               	btfss	i2___ftadd@sign,7,c
  3895  001432  D00C               	goto	i2l375
  3896  001434  0EFF               	movlw	255
  3897  001436  1A1E               	xorwf	i2___ftadd@f1,f,c
  3898  001438  0EFF               	movlw	255
  3899  00143A  1A1F               	xorwf	i2___ftadd@f1+1,f,c
  3900  00143C  0EFF               	movlw	255
  3901  00143E  1A20               	xorwf	i2___ftadd@f1+2,f,c
  3902  001440  0E01               	movlw	1
  3903  001442  261E               	addwf	i2___ftadd@f1,f,c
  3904  001444  0E00               	movlw	0
  3905  001446  221F               	addwfc	i2___ftadd@f1+1,f,c
  3906  001448  0E00               	movlw	0
  3907  00144A  2220               	addwfc	i2___ftadd@f1+2,f,c
  3908  00144C                     i2l375:
  3909  00144C  AC27               	btfss	i2___ftadd@sign,6,c
  3910  00144E  D00C               	goto	i2l1579
  3911  001450  0EFF               	movlw	255
  3912  001452  1A21               	xorwf	i2___ftadd@f2,f,c
  3913  001454  0EFF               	movlw	255
  3914  001456  1A22               	xorwf	i2___ftadd@f2+1,f,c
  3915  001458  0EFF               	movlw	255
  3916  00145A  1A23               	xorwf	i2___ftadd@f2+2,f,c
  3917  00145C  0E01               	movlw	1
  3918  00145E  2621               	addwf	i2___ftadd@f2,f,c
  3919  001460  0E00               	movlw	0
  3920  001462  2222               	addwfc	i2___ftadd@f2+1,f,c
  3921  001464  0E00               	movlw	0
  3922  001466  2223               	addwfc	i2___ftadd@f2+2,f,c
  3923  001468                     i2l1579:
  3924  001468  0E00               	movlw	0
  3925  00146A  6E27               	movwf	i2___ftadd@sign,c
  3926  00146C  501E               	movf	i2___ftadd@f1,w,c
  3927  00146E  2621               	addwf	i2___ftadd@f2,f,c
  3928  001470  501F               	movf	i2___ftadd@f1+1,w,c
  3929  001472  2222               	addwfc	i2___ftadd@f2+1,f,c
  3930  001474  5020               	movf	i2___ftadd@f1+2,w,c
  3931  001476  2223               	addwfc	i2___ftadd@f2+2,f,c
  3932  001478  AE23               	btfss	i2___ftadd@f2+2,7,c
  3933  00147A  D00E               	goto	i2l1589
  3934  00147C  0EFF               	movlw	255
  3935  00147E  1A21               	xorwf	i2___ftadd@f2,f,c
  3936  001480  0EFF               	movlw	255
  3937  001482  1A22               	xorwf	i2___ftadd@f2+1,f,c
  3938  001484  0EFF               	movlw	255
  3939  001486  1A23               	xorwf	i2___ftadd@f2+2,f,c
  3940  001488  0E01               	movlw	1
  3941  00148A  2621               	addwf	i2___ftadd@f2,f,c
  3942  00148C  0E00               	movlw	0
  3943  00148E  2222               	addwfc	i2___ftadd@f2+1,f,c
  3944  001490  0E00               	movlw	0
  3945  001492  2223               	addwfc	i2___ftadd@f2+2,f,c
  3946  001494  0E01               	movlw	1
  3947  001496  6E27               	movwf	i2___ftadd@sign,c
  3948  001498                     i2l1589:
  3949  001498  C021  F001         	movff	i2___ftadd@f2,i2___ftpack@arg
  3950  00149C  C022  F002         	movff	i2___ftadd@f2+1,i2___ftpack@arg+1
  3951  0014A0  C023  F003         	movff	i2___ftadd@f2+2,i2___ftpack@arg+2
  3952  0014A4  C029  F004         	movff	i2___ftadd@exp1,i2___ftpack@exp
  3953  0014A8  C027  F005         	movff	i2___ftadd@sign,i2___ftpack@sign
  3954  0014AC  EC78  F00D         	call	i2___ftpack	;wreg free
  3955  0014B0  C001  F01E         	movff	?i2___ftpack,?i2___ftadd
  3956  0014B4  C002  F01F         	movff	?i2___ftpack+1,?i2___ftadd+1
  3957  0014B8  C003  F020         	movff	?i2___ftpack+2,?i2___ftadd+2
  3958  0014BC  0012               	return	
  3959  0014BE                     __end_ofi2___ftadd:
  3960                           	opt stack 0
  3961                           pclatu	equ	0xFFB
  3962                           pclath	equ	0xFFA
  3963                           tblptru	equ	0xFF8
  3964                           tblptrh	equ	0xFF7
  3965                           tblptrl	equ	0xFF6
  3966                           tablat	equ	0xFF5
  3967                           prodh	equ	0xFF4
  3968                           prodl	equ	0xFF3
  3969                           intcon	equ	0xFF2
  3970                           fsr0h	equ	0xFEA
  3971                           fsr0l	equ	0xFE9
  3972                           wreg	equ	0xFE8
  3973                           fsr1h	equ	0xFE2
  3974                           fsr1l	equ	0xFE1
  3975                           bsr	equ	0xFE0
  3976                           fsr2h	equ	0xFDA
  3977                           fsr2l	equ	0xFD9
  3978                           status	equ	0xFD8
  3979                           
  3980 ;; *************** function i2___ftpack *****************
  3981 ;; Defined at:
  3982 ;;		line 62 in file "C:\Program Files (x86)\Microchip\xc8\v1.42\sources\common\float.c"
  3983 ;; Parameters:    Size  Location     Type
  3984 ;;  arg             3    0[COMRAM] unsigned um
  3985 ;;  exp             1    3[COMRAM] unsigned char 
  3986 ;;  sign            1    4[COMRAM] unsigned char 
  3987 ;; Auto vars:     Size  Location     Type
  3988 ;;		None
  3989 ;; Return value:  Size  Location     Type
  3990 ;;                  3    0[COMRAM] float 
  3991 ;; Registers used:
  3992 ;;		wreg, status,2, status,0
  3993 ;; Tracked objects:
  3994 ;;		On entry : 0/0
  3995 ;;		On exit  : 0/0
  3996 ;;		Unchanged: 0/0
  3997 ;; Data sizes:     COMRAM   BANK0   BANK1   BANK2   BANK3   BANK4   BANK5   BANK6   BANK7
  3998 ;;      Params:         5       0       0       0       0       0       0       0       0
  3999 ;;      Locals:         0       0       0       0       0       0       0       0       0
  4000 ;;      Temps:          3       0       0       0       0       0       0       0       0
  4001 ;;      Totals:         8       0       0       0       0       0       0       0       0
  4002 ;;Total ram usage:        8 bytes
  4003 ;; Hardware stack levels used:    1
  4004 ;; This function calls:
  4005 ;;		Nothing
  4006 ;; This function is called by:
  4007 ;;		i2___ftadd
  4008 ;;		i2___ftdiv
  4009 ;;		i2___lwtoft
  4010 ;; This function uses a non-reentrant model
  4011 ;;
  4012                           
  4013                           	psect	text23
  4014  001AF0                     __ptext23:
  4015                           	opt stack 0
  4016  001AF0                     i2___ftpack:
  4017                           	opt stack 23
  4018                           
  4019                           ;incstack = 0
  4020  001AF0  5004               	movf	i2___ftpack@exp,w,c
  4021  001AF2  B4D8               	btfsc	status,2,c
  4022  001AF4  D005               	goto	i2l1321
  4023  001AF6  5001               	movf	i2___ftpack@arg,w,c
  4024  001AF8  1002               	iorwf	i2___ftpack@arg+1,w,c
  4025  001AFA  1003               	iorwf	i2___ftpack@arg+2,w,c
  4026  001AFC  A4D8               	btfss	status,2,c
  4027  001AFE  D00C               	goto	i2l1327
  4028  001B00                     i2l1321:
  4029  001B00  0E00               	movlw	0
  4030  001B02  6E01               	movwf	?i2___ftpack,c
  4031  001B04  0E00               	movlw	0
  4032  001B06  6E02               	movwf	?i2___ftpack+1,c
  4033  001B08  0E00               	movlw	0
  4034  001B0A  6E03               	movwf	?i2___ftpack+2,c
  4035  001B0C  0012               	return	
  4036  001B0E                     i2l1325:
  4037  001B0E  2A04               	incf	i2___ftpack@exp,f,c
  4038  001B10  90D8               	bcf	status,0,c
  4039  001B12  3203               	rrcf	i2___ftpack@arg+2,f,c
  4040  001B14  3202               	rrcf	i2___ftpack@arg+1,f,c
  4041  001B16  3201               	rrcf	i2___ftpack@arg,f,c
  4042  001B18                     i2l1327:
  4043  001B18  0E00               	movlw	0
  4044  001B1A  1401               	andwf	i2___ftpack@arg,w,c
  4045  001B1C  6E06               	movwf	??i2___ftpack& (0+255),c
  4046  001B1E  0E00               	movlw	0
  4047  001B20  1402               	andwf	i2___ftpack@arg+1,w,c
  4048  001B22  6E07               	movwf	(??i2___ftpack+1)& (0+255),c
  4049  001B24  0EFE               	movlw	254
  4050  001B26  1403               	andwf	i2___ftpack@arg+2,w,c
  4051  001B28  6E08               	movwf	(??i2___ftpack+2)& (0+255),c
  4052  001B2A  5006               	movf	??i2___ftpack,w,c
  4053  001B2C  1007               	iorwf	??i2___ftpack+1,w,c
  4054  001B2E  1008               	iorwf	??i2___ftpack+2,w,c
  4055  001B30  B4D8               	btfsc	status,2,c
  4056  001B32  D00C               	goto	i2l1333
  4057  001B34  D7EC               	goto	i2l1325
  4058  001B36                     i2l1329:
  4059  001B36  2A04               	incf	i2___ftpack@exp,f,c
  4060  001B38  0E01               	movlw	1
  4061  001B3A  2601               	addwf	i2___ftpack@arg,f,c
  4062  001B3C  0E00               	movlw	0
  4063  001B3E  2202               	addwfc	i2___ftpack@arg+1,f,c
  4064  001B40  0E00               	movlw	0
  4065  001B42  2203               	addwfc	i2___ftpack@arg+2,f,c
  4066  001B44  90D8               	bcf	status,0,c
  4067  001B46  3203               	rrcf	i2___ftpack@arg+2,f,c
  4068  001B48  3202               	rrcf	i2___ftpack@arg+1,f,c
  4069  001B4A  3201               	rrcf	i2___ftpack@arg,f,c
  4070  001B4C                     i2l1333:
  4071  001B4C  0E00               	movlw	0
  4072  001B4E  1401               	andwf	i2___ftpack@arg,w,c
  4073  001B50  6E06               	movwf	??i2___ftpack& (0+255),c
  4074  001B52  0E00               	movlw	0
  4075  001B54  1402               	andwf	i2___ftpack@arg+1,w,c
  4076  001B56  6E07               	movwf	(??i2___ftpack+1)& (0+255),c
  4077  001B58  0EFF               	movlw	255
  4078  001B5A  1403               	andwf	i2___ftpack@arg+2,w,c
  4079  001B5C  6E08               	movwf	(??i2___ftpack+2)& (0+255),c
  4080  001B5E  5006               	movf	??i2___ftpack,w,c
  4081  001B60  1007               	iorwf	??i2___ftpack+1,w,c
  4082  001B62  1008               	iorwf	??i2___ftpack+2,w,c
  4083  001B64  B4D8               	btfsc	status,2,c
  4084  001B66  D006               	goto	i2l1337
  4085  001B68  D7E6               	goto	i2l1329
  4086  001B6A                     i2l1335:
  4087  001B6A  0604               	decf	i2___ftpack@exp,f,c
  4088  001B6C  90D8               	bcf	status,0,c
  4089  001B6E  3601               	rlcf	i2___ftpack@arg,f,c
  4090  001B70  3602               	rlcf	i2___ftpack@arg+1,f,c
  4091  001B72  3603               	rlcf	i2___ftpack@arg+2,f,c
  4092  001B74                     i2l1337:
  4093  001B74  BE02               	btfsc	i2___ftpack@arg+1,7,c
  4094  001B76  D003               	goto	i2l328
  4095  001B78  0E02               	movlw	2
  4096  001B7A  6004               	cpfslt	i2___ftpack@exp,c
  4097  001B7C  D7F6               	goto	i2l1335
  4098  001B7E                     i2l328:
  4099  001B7E  A004               	btfss	i2___ftpack@exp,0,c
  4100  001B80  9E02               	bcf	i2___ftpack@arg+1,7,c
  4101  001B82  90D8               	bcf	status,0,c
  4102  001B84  3204               	rrcf	i2___ftpack@exp,f,c
  4103  001B86  5004               	movf	i2___ftpack@exp,w,c
  4104  001B88  1203               	iorwf	i2___ftpack@arg+2,f,c
  4105  001B8A  5005               	movf	i2___ftpack@sign,w,c
  4106  001B8C  A4D8               	btfss	status,2,c
  4107  001B8E  8E03               	bsf	i2___ftpack@arg+2,7,c
  4108  001B90  C001  F001         	movff	i2___ftpack@arg,?i2___ftpack
  4109  001B94  C002  F002         	movff	i2___ftpack@arg+1,?i2___ftpack+1
  4110  001B98  C003  F003         	movff	i2___ftpack@arg+2,?i2___ftpack+2
  4111  001B9C  0012               	return	
  4112  001B9E                     __end_ofi2___ftpack:
  4113                           	opt stack 0
  4114  0000                     pclatu	equ	0xFFB
  4115                           pclath	equ	0xFFA
  4116                           tblptru	equ	0xFF8
  4117                           tblptrh	equ	0xFF7
  4118                           tblptrl	equ	0xFF6
  4119                           tablat	equ	0xFF5
  4120                           prodh	equ	0xFF4
  4121                           prodl	equ	0xFF3
  4122                           intcon	equ	0xFF2
  4123                           fsr0h	equ	0xFEA
  4124                           fsr0l	equ	0xFE9
  4125                           wreg	equ	0xFE8
  4126                           fsr1h	equ	0xFE2
  4127                           fsr1l	equ	0xFE1
  4128                           bsr	equ	0xFE0
  4129                           fsr2h	equ	0xFDA
  4130                           fsr2l	equ	0xFD9
  4131                           status	equ	0xFD8
  4132                           pclatu	equ	0xFFB
  4133                           pclath	equ	0xFFA
  4134                           tblptru	equ	0xFF8
  4135                           tblptrh	equ	0xFF7
  4136                           tblptrl	equ	0xFF6
  4137                           tablat	equ	0xFF5
  4138                           prodh	equ	0xFF4
  4139                           prodl	equ	0xFF3
  4140                           intcon	equ	0xFF2
  4141                           fsr0h	equ	0xFEA
  4142                           fsr0l	equ	0xFE9
  4143                           wreg	equ	0xFE8
  4144                           fsr1h	equ	0xFE2
  4145                           fsr1l	equ	0xFE1
  4146                           bsr	equ	0xFE0
  4147                           fsr2h	equ	0xFDA
  4148                           fsr2l	equ	0xFD9
  4149                           status	equ	0xFD8
  4150                           
  4151                           	psect	rparam
  4152  0000                     pclatu	equ	0xFFB
  4153                           pclath	equ	0xFFA
  4154                           tblptru	equ	0xFF8
  4155                           tblptrh	equ	0xFF7
  4156                           tblptrl	equ	0xFF6
  4157                           tablat	equ	0xFF5
  4158                           prodh	equ	0xFF4
  4159                           prodl	equ	0xFF3
  4160                           intcon	equ	0xFF2
  4161                           fsr0h	equ	0xFEA
  4162                           fsr0l	equ	0xFE9
  4163                           wreg	equ	0xFE8
  4164                           fsr1h	equ	0xFE2
  4165                           fsr1l	equ	0xFE1
  4166                           bsr	equ	0xFE0
  4167                           fsr2h	equ	0xFDA
  4168                           fsr2l	equ	0xFD9
  4169                           status	equ	0xFD8
  4170                           
  4171                           	psect	temp
  4172  00004B                     btemp:
  4173                           	opt stack 0
  4174  00004B                     	ds	1
  4175  0000                     int$flags	set	btemp
  4176                           pclatu	equ	0xFFB
  4177                           pclath	equ	0xFFA
  4178                           tblptru	equ	0xFF8
  4179                           tblptrh	equ	0xFF7
  4180                           tblptrl	equ	0xFF6
  4181                           tablat	equ	0xFF5
  4182                           prodh	equ	0xFF4
  4183                           prodl	equ	0xFF3
  4184                           intcon	equ	0xFF2
  4185                           fsr0h	equ	0xFEA
  4186                           fsr0l	equ	0xFE9
  4187                           wreg	equ	0xFE8
  4188                           fsr1h	equ	0xFE2
  4189                           fsr1l	equ	0xFE1
  4190                           bsr	equ	0xFE0
  4191                           fsr2h	equ	0xFDA
  4192                           fsr2l	equ	0xFD9
  4193                           status	equ	0xFD8


Data Sizes:
    Strings     0
    Constant    0
    Data        0
    BSS         0
    Persistent  0
    Stack       0

Auto Spaces:
    Space          Size  Autos    Used
    COMRAM           94     74      74
    BANK0           160     77      77
    BANK1           256      0       0
    BANK2           256      0       0
    BANK3           256      0       0
    BANK4           256      0       0
    BANK5           256      0       0
    BANK6           256      0       0
    BANK7           256      0       0

Pointer List with Targets:

    None.

Critical Paths under _main in COMRAM

    None.

Critical Paths under _low_isr in COMRAM

    None.

Critical Paths under _high_isr in COMRAM

    _high_isr->i2_start_TMR0ms
    _high_isr->i2_start_TMR1ms
    _high_isr->i2_start_TMR3ms
    i2_start_TMR3ms->i2___fttol
    i2_start_TMR1ms->i2___fttol
    i2_start_TMR0ms->i2___fttol
    i2___lwtoft->i2___ftpack
    i2___fttol->i2___ftadd
    i2___ftneg->i2___ftdiv
    i2___ftdiv->i2___lwtoft
    i2___ftadd->i2___ftneg

Critical Paths under _main in BANK0

    _main->_start_TMR0ms
    _main->_start_TMR1ms
    _main->_start_TMR3ms
    _start_TMR3ms->___fttol
    _start_TMR1ms->___fttol
    _start_TMR0ms->___fttol
    ___lwtoft->___ftpack
    ___fttol->___ftadd
    ___ftneg->___ftdiv
    ___ftdiv->___lwtoft
    ___ftadd->___ftneg

Critical Paths under _low_isr in BANK0

    None.

Critical Paths under _high_isr in BANK0

    None.

Critical Paths under _main in BANK1

    None.

Critical Paths under _low_isr in BANK1

    None.

Critical Paths under _high_isr in BANK1

    None.

Critical Paths under _main in BANK2

    None.

Critical Paths under _low_isr in BANK2

    None.

Critical Paths under _high_isr in BANK2

    None.

Critical Paths under _main in BANK3

    None.

Critical Paths under _low_isr in BANK3

    None.

Critical Paths under _high_isr in BANK3

    None.

Critical Paths under _main in BANK4

    None.

Critical Paths under _low_isr in BANK4

    None.

Critical Paths under _high_isr in BANK4

    None.

Critical Paths under _main in BANK5

    None.

Critical Paths under _low_isr in BANK5

    None.

Critical Paths under _high_isr in BANK5

    None.

Critical Paths under _main in BANK6

    None.

Critical Paths under _low_isr in BANK6

    None.

Critical Paths under _high_isr in BANK6

    None.

Critical Paths under _main in BANK7

    None.

Critical Paths under _low_isr in BANK7

    None.

Critical Paths under _high_isr in BANK7

    None.

Call Graph Tables:

 ---------------------------------------------------------------------------------
 (Depth) Function   	        Calls       Base Space   Used Autos Params    Refs
 ---------------------------------------------------------------------------------
 (0) _main                                                 0     0      0   33087
                        _config_TMR0
                        _config_TMR1
                        _config_TMR3
                       _start_TMR0ms
                       _start_TMR1ms
                       _start_TMR3ms
 ---------------------------------------------------------------------------------
 (1) _start_TMR3ms                                         4     2      2   10909
                                             73 BANK0      4     2      2
                            ___ftadd
                            ___ftdiv
                            ___ftneg
                            ___fttol
                           ___lwtoft
 ---------------------------------------------------------------------------------
 (1) _start_TMR1ms                                         4     2      2   10909
                                             73 BANK0      4     2      2
                            ___ftadd
                            ___ftdiv
                            ___ftneg
                            ___fttol
                           ___lwtoft
 ---------------------------------------------------------------------------------
 (1) _start_TMR0ms                                         4     2      2   10909
                                             73 BANK0      4     2      2
                            ___ftadd
                            ___ftdiv
                            ___ftneg
                            ___fttol
                           ___lwtoft
 ---------------------------------------------------------------------------------
 (2) ___lwtoft                                             3     0      3    2677
                                             25 BANK0      3     0      3
                           ___ftpack
 ---------------------------------------------------------------------------------
 (2) ___fttol                                             15    11      4     480
                                             58 BANK0     15    11      4
                            ___ftadd (ARG)
                            ___ftdiv (ARG)
                            ___ftneg (ARG)
                           ___lwtoft (ARG)
 ---------------------------------------------------------------------------------
 (2) ___ftneg                                              3     0      3     273
                                             43 BANK0      3     0      3
                            ___ftdiv (ARG)
                           ___lwtoft (ARG)
 ---------------------------------------------------------------------------------
 (2) ___ftdiv                                             15     9      6    3289
                                             28 BANK0     15     9      6
                           ___ftpack
                           ___lwtoft (ARG)
 ---------------------------------------------------------------------------------
 (2) ___ftadd                                             12     6      6    3975
                                             46 BANK0     12     6      6
                            ___ftdiv (ARG)
                            ___ftneg (ARG)
                           ___ftpack
                           ___lwtoft (ARG)
 ---------------------------------------------------------------------------------
 (3) ___ftpack                                             8     3      5    2427
                                             17 BANK0      8     3      5
 ---------------------------------------------------------------------------------
 (1) _config_TMR3                                          2     1      1     120
                                             17 BANK0      2     1      1
 ---------------------------------------------------------------------------------
 (1) _config_TMR1                                          2     1      1     120
                                             17 BANK0      2     1      1
 ---------------------------------------------------------------------------------
 (1) _config_TMR0                                          2     1      1     120
                                             17 BANK0      2     1      1
 ---------------------------------------------------------------------------------
 Estimated maximum stack depth 3
 ---------------------------------------------------------------------------------
 (Depth) Function   	        Calls       Base Space   Used Autos Params    Refs
 ---------------------------------------------------------------------------------
 (4) _low_isr                                             17    17      0       0
                                              0 BANK0     17    17      0
 ---------------------------------------------------------------------------------
 Estimated maximum stack depth 4
 ---------------------------------------------------------------------------------
 (Depth) Function   	        Calls       Base Space   Used Autos Params    Refs
 ---------------------------------------------------------------------------------
 (5) _high_isr                                            14    14      0   10485
                                             60 COMRAM    14    14      0
                     i2_start_TMR0ms
                     i2_start_TMR1ms
                     i2_start_TMR3ms
 ---------------------------------------------------------------------------------
 (6) i2_start_TMR3ms                                       4     2      2    3495
                                             56 COMRAM     4     2      2
                          i2___ftadd
                          i2___ftdiv
                          i2___ftneg
                          i2___fttol
                         i2___lwtoft
 ---------------------------------------------------------------------------------
 (6) i2_start_TMR1ms                                       4     2      2    3495
                                             56 COMRAM     4     2      2
                          i2___ftadd
                          i2___ftdiv
                          i2___ftneg
                          i2___fttol
                         i2___lwtoft
 ---------------------------------------------------------------------------------
 (6) i2_start_TMR0ms                                       4     2      2    3495
                                             56 COMRAM     4     2      2
                          i2___ftadd
                          i2___ftdiv
                          i2___ftneg
                          i2___fttol
                         i2___lwtoft
 ---------------------------------------------------------------------------------
 (7) i2___lwtoft                                           3     0      3     565
                                              8 COMRAM     3     0      3
                         i2___ftpack
 ---------------------------------------------------------------------------------
 (7) i2___fttol                                           15    11      4     330
                                             41 COMRAM    15    11      4
                          i2___ftadd (ARG)
                          i2___ftdiv (ARG)
                          i2___ftneg (ARG)
                         i2___lwtoft (ARG)
 ---------------------------------------------------------------------------------
 (7) i2___ftneg                                            3     0      3     123
                                             26 COMRAM     3     0      3
                          i2___ftdiv (ARG)
                         i2___lwtoft (ARG)
 ---------------------------------------------------------------------------------
 (7) i2___ftdiv                                           15     9      6     901
                                             11 COMRAM    15     9      6
                         i2___ftpack
                         i2___lwtoft (ARG)
 ---------------------------------------------------------------------------------
 (7) i2___ftadd                                           12     6      6    1461
                                             29 COMRAM    12     6      6
                          i2___ftdiv (ARG)
                          i2___ftneg (ARG)
                         i2___ftpack
                         i2___lwtoft (ARG)
 ---------------------------------------------------------------------------------
 (8) i2___ftpack                                           8     3      5     465
                                              0 COMRAM     8     3      5
 ---------------------------------------------------------------------------------
 Estimated maximum stack depth 8
 ---------------------------------------------------------------------------------

 Call Graph Graphs:

 _main (ROOT)
   _config_TMR0
   _config_TMR1
   _config_TMR3
   _start_TMR0ms
     ___ftadd
       ___ftdiv (ARG)
         ___ftpack
         ___lwtoft (ARG)
           ___ftpack
       ___ftneg (ARG)
         ___ftdiv (ARG)
           ___ftpack
           ___lwtoft (ARG)
             ___ftpack
         ___lwtoft (ARG)
           ___ftpack
       ___ftpack (ARG)
       ___lwtoft (ARG)
         ___ftpack
     ___ftdiv
       ___ftpack
       ___lwtoft (ARG)
         ___ftpack
     ___ftneg
       ___ftdiv (ARG)
         ___ftpack
         ___lwtoft (ARG)
           ___ftpack
       ___lwtoft (ARG)
         ___ftpack
     ___fttol
       ___ftadd (ARG)
         ___ftdiv (ARG)
           ___ftpack
           ___lwtoft (ARG)
             ___ftpack
         ___ftneg (ARG)
           ___ftdiv (ARG)
             ___ftpack
             ___lwtoft (ARG)
               ___ftpack
           ___lwtoft (ARG)
             ___ftpack
         ___ftpack (ARG)
         ___lwtoft (ARG)
           ___ftpack
       ___ftdiv (ARG)
         ___ftpack
         ___lwtoft (ARG)
           ___ftpack
       ___ftneg (ARG)
         ___ftdiv (ARG)
           ___ftpack
           ___lwtoft (ARG)
             ___ftpack
         ___lwtoft (ARG)
           ___ftpack
       ___lwtoft (ARG)
         ___ftpack
     ___lwtoft
       ___ftpack
   _start_TMR1ms
     ___ftadd
       ___ftdiv (ARG)
         ___ftpack
         ___lwtoft (ARG)
           ___ftpack
       ___ftneg (ARG)
         ___ftdiv (ARG)
           ___ftpack
           ___lwtoft (ARG)
             ___ftpack
         ___lwtoft (ARG)
           ___ftpack
       ___ftpack (ARG)
       ___lwtoft (ARG)
         ___ftpack
     ___ftdiv
       ___ftpack
       ___lwtoft (ARG)
         ___ftpack
     ___ftneg
       ___ftdiv (ARG)
         ___ftpack
         ___lwtoft (ARG)
           ___ftpack
       ___lwtoft (ARG)
         ___ftpack
     ___fttol
       ___ftadd (ARG)
         ___ftdiv (ARG)
           ___ftpack
           ___lwtoft (ARG)
             ___ftpack
         ___ftneg (ARG)
           ___ftdiv (ARG)
             ___ftpack
             ___lwtoft (ARG)
               ___ftpack
           ___lwtoft (ARG)
             ___ftpack
         ___ftpack (ARG)
         ___lwtoft (ARG)
           ___ftpack
       ___ftdiv (ARG)
         ___ftpack
         ___lwtoft (ARG)
           ___ftpack
       ___ftneg (ARG)
         ___ftdiv (ARG)
           ___ftpack
           ___lwtoft (ARG)
             ___ftpack
         ___lwtoft (ARG)
           ___ftpack
       ___lwtoft (ARG)
         ___ftpack
     ___lwtoft
       ___ftpack
   _start_TMR3ms
     ___ftadd
       ___ftdiv (ARG)
         ___ftpack
         ___lwtoft (ARG)
           ___ftpack
       ___ftneg (ARG)
         ___ftdiv (ARG)
           ___ftpack
           ___lwtoft (ARG)
             ___ftpack
         ___lwtoft (ARG)
           ___ftpack
       ___ftpack (ARG)
       ___lwtoft (ARG)
         ___ftpack
     ___ftdiv
       ___ftpack
       ___lwtoft (ARG)
         ___ftpack
     ___ftneg
       ___ftdiv (ARG)
         ___ftpack
         ___lwtoft (ARG)
           ___ftpack
       ___lwtoft (ARG)
         ___ftpack
     ___fttol
       ___ftadd (ARG)
         ___ftdiv (ARG)
           ___ftpack
           ___lwtoft (ARG)
             ___ftpack
         ___ftneg (ARG)
           ___ftdiv (ARG)
             ___ftpack
             ___lwtoft (ARG)
               ___ftpack
           ___lwtoft (ARG)
             ___ftpack
         ___ftpack (ARG)
         ___lwtoft (ARG)
           ___ftpack
       ___ftdiv (ARG)
         ___ftpack
         ___lwtoft (ARG)
           ___ftpack
       ___ftneg (ARG)
         ___ftdiv (ARG)
           ___ftpack
           ___lwtoft (ARG)
             ___ftpack
         ___lwtoft (ARG)
           ___ftpack
       ___lwtoft (ARG)
         ___ftpack
     ___lwtoft
       ___ftpack

 _low_isr (ROOT)

 _high_isr (ROOT)
   i2_start_TMR0ms
     i2___ftadd
       i2___ftdiv (ARG)
         i2___ftpack
         i2___lwtoft (ARG)
           i2___ftpack
       i2___ftneg (ARG)
         i2___ftdiv (ARG)
           i2___ftpack
           i2___lwtoft (ARG)
             i2___ftpack
         i2___lwtoft (ARG)
           i2___ftpack
       i2___ftpack (ARG)
       i2___lwtoft (ARG)
         i2___ftpack
     i2___ftdiv
       i2___ftpack
       i2___lwtoft (ARG)
         i2___ftpack
     i2___ftneg
       i2___ftdiv (ARG)
         i2___ftpack
         i2___lwtoft (ARG)
           i2___ftpack
       i2___lwtoft (ARG)
         i2___ftpack
     i2___fttol
       i2___ftadd (ARG)
         i2___ftdiv (ARG)
           i2___ftpack
           i2___lwtoft (ARG)
             i2___ftpack
         i2___ftneg (ARG)
           i2___ftdiv (ARG)
             i2___ftpack
             i2___lwtoft (ARG)
               i2___ftpack
           i2___lwtoft (ARG)
             i2___ftpack
         i2___ftpack (ARG)
         i2___lwtoft (ARG)
           i2___ftpack
       i2___ftdiv (ARG)
         i2___ftpack
         i2___lwtoft (ARG)
           i2___ftpack
       i2___ftneg (ARG)
         i2___ftdiv (ARG)
           i2___ftpack
           i2___lwtoft (ARG)
             i2___ftpack
         i2___lwtoft (ARG)
           i2___ftpack
       i2___lwtoft (ARG)
         i2___ftpack
     i2___lwtoft
       i2___ftpack
   i2_start_TMR1ms
     i2___ftadd
       i2___ftdiv (ARG)
         i2___ftpack
         i2___lwtoft (ARG)
           i2___ftpack
       i2___ftneg (ARG)
         i2___ftdiv (ARG)
           i2___ftpack
           i2___lwtoft (ARG)
             i2___ftpack
         i2___lwtoft (ARG)
           i2___ftpack
       i2___ftpack (ARG)
       i2___lwtoft (ARG)
         i2___ftpack
     i2___ftdiv
       i2___ftpack
       i2___lwtoft (ARG)
         i2___ftpack
     i2___ftneg
       i2___ftdiv (ARG)
         i2___ftpack
         i2___lwtoft (ARG)
           i2___ftpack
       i2___lwtoft (ARG)
         i2___ftpack
     i2___fttol
       i2___ftadd (ARG)
         i2___ftdiv (ARG)
           i2___ftpack
           i2___lwtoft (ARG)
             i2___ftpack
         i2___ftneg (ARG)
           i2___ftdiv (ARG)
             i2___ftpack
             i2___lwtoft (ARG)
               i2___ftpack
           i2___lwtoft (ARG)
             i2___ftpack
         i2___ftpack (ARG)
         i2___lwtoft (ARG)
           i2___ftpack
       i2___ftdiv (ARG)
         i2___ftpack
         i2___lwtoft (ARG)
           i2___ftpack
       i2___ftneg (ARG)
         i2___ftdiv (ARG)
           i2___ftpack
           i2___lwtoft (ARG)
             i2___ftpack
         i2___lwtoft (ARG)
           i2___ftpack
       i2___lwtoft (ARG)
         i2___ftpack
     i2___lwtoft
       i2___ftpack
   i2_start_TMR3ms
     i2___ftadd
       i2___ftdiv (ARG)
         i2___ftpack
         i2___lwtoft (ARG)
           i2___ftpack
       i2___ftneg (ARG)
         i2___ftdiv (ARG)
           i2___ftpack
           i2___lwtoft (ARG)
             i2___ftpack
         i2___lwtoft (ARG)
           i2___ftpack
       i2___ftpack (ARG)
       i2___lwtoft (ARG)
         i2___ftpack
     i2___ftdiv
       i2___ftpack
       i2___lwtoft (ARG)
         i2___ftpack
     i2___ftneg
       i2___ftdiv (ARG)
         i2___ftpack
         i2___lwtoft (ARG)
           i2___ftpack
       i2___lwtoft (ARG)
         i2___ftpack
     i2___fttol
       i2___ftadd (ARG)
         i2___ftdiv (ARG)
           i2___ftpack
           i2___lwtoft (ARG)
             i2___ftpack
         i2___ftneg (ARG)
           i2___ftdiv (ARG)
             i2___ftpack
             i2___lwtoft (ARG)
               i2___ftpack
           i2___lwtoft (ARG)
             i2___ftpack
         i2___ftpack (ARG)
         i2___lwtoft (ARG)
           i2___ftpack
       i2___ftdiv (ARG)
         i2___ftpack
         i2___lwtoft (ARG)
           i2___ftpack
       i2___ftneg (ARG)
         i2___ftdiv (ARG)
           i2___ftpack
           i2___lwtoft (ARG)
             i2___ftpack
         i2___lwtoft (ARG)
           i2___ftpack
       i2___lwtoft (ARG)
         i2___ftpack
     i2___lwtoft
       i2___ftpack

 Address spaces:
Name               Size   Autos  Total    Cost      Usage
BITCOMRAM           5E      0       0       0        0.0%
EEDATA             100      0       0       0        0.0%
NULL                 0      0       0       0        0.0%
CODE                 0      0       0       0        0.0%
COMRAM              5E     4A      4A       1       78.7%
STACK                0      0       0       2        0.0%
DATA                 0      0       0       3        0.0%
BITBANK0            A0      0       0       4        0.0%
BANK0               A0     4D      4D       5       48.1%
ABS                  0      0       0       6        0.0%
BITBANK1           100      0       0       7        0.0%
BANK1              100      0       0       8        0.0%
BITBANK2           100      0       0       9        0.0%
BANK2              100      0       0      10        0.0%
BITBANK3           100      0       0      11        0.0%
BANK3              100      0       0      12        0.0%
BITBANK4           100      0       0      13        0.0%
BANK4              100      0       0      14        0.0%
BITBANK5           100      0       0      15        0.0%
BANK5              100      0       0      16        0.0%
BITBANK6           100      0       0      17        0.0%
BANK6              100      0       0      18        0.0%
BITBANK7           100      0       0      19        0.0%
BANK7              100      0       0      20        0.0%
BIGRAM             7FF      0       0      21        0.0%
BITSFR_1             0      0       0     200        0.0%
SFR_1                0      0       0     200        0.0%
BITSFR               0      0       0     200        0.0%
SFR                  0      0       0     200        0.0%


Microchip Technology PIC18 Macro Assembler V1.42 build -159332390 
Symbol Table                                                                                   Mon Apr 02 19:04:24 2018

                          l51 2064                            l61 1FF8                            l63 200E  
                          l49 2050                            l73 1FCA                            l75 1FE0  
                          bsr 000FE0                    i2___ftpack 1AF0                  ___ftadd@exp1 0099  
                ___ftadd@exp2 0098                  ___ftadd@sign 0097                           l100 1F86  
                         l351 1112                           l328 1826                           l408 1FAA  
                         l355 114C                           l357 1174                           l366 124A  
                         l375 1274                           l386 15D4                    i2___lwtoft 2068  
                _start_TMR0ms 1CDE                  _start_TMR1ms 1C3E                  _start_TMR3ms 1B9E  
                         wreg 000FE8       __size_ofi2_start_TMR0ms 008E       __size_ofi2_start_TMR1ms 008E  
     __size_ofi2_start_TMR3ms 008E                  ___ftdiv@cntr 0085                  ___ftdiv@sign 008A  
                        l1301 1818                          l1313 184C                          l1401 1230  
                        l1307 1830                          l1403 123E                          l1501 16EA  
                        l1511 1720                          l1409 129E                          l1361 1120  
                        l1291 178A                          l1419 12EC                          l1435 1532  
                        l1515 173C                          l1507 1706                          l1293 17BA  
                        l1285 1768                          l1373 116A                          l1429 14F8  
                        l1509 1716                          l1391 11E8                          l1383 11AC  
                        l1367 115A                          l1455 1592                          l1297 17DA  
                        l1289 177C                          l1393 11F6                          l1713 1D7A  
                        l1299 180A                          l1395 1202                          l1707 1CF8  
                        l1741 1FCC                          l1389 11DA                          l1719 1FFA  
                        l1479 1644                          l1735 1CDA                          l1751 1BB8  
                        l1497 16D6                          l1729 1C58                          l1757 1C3A  
                        l1697 2052                          u1411 150E                          u1181 10C0  
                        _LATB 000F8A                          u1191 10DE                          u1451 1620  
                        u1470 166A                          u1391 14D4                          u1475 1660  
                        u1930 1C4E                          u1960 1BAE                          _PIR1 000F9E  
                        _PIR2 000FA1                          i2l90 1AB4                          _main 1F28  
                ___ftpack@arg 0071                  ___ftpack@exp 0074                          fsr0h 000FEA  
                        fsr1h 000FE2                          fsr2h 000FDA                          fsr0l 000FE9  
                        fsr1l 000FE1                          fsr2l 000FD9                          btemp 004B  
                i2___ftadd@f1 001E                  i2___ftadd@f2 0021                          prodh 000FF4  
                        prodl 000FF3                          start 10A6                  i2___ftdiv@f1 000C  
                i2___ftdiv@f2 000F                  i2___ftdiv@f3 0016                  i2___ftneg@f1 001B  
                ___param_bank 000000                  i2___fttol@f1 002A       config_TMR0@clock_source 0071  
                ___fttol@exp1 00A8                  ___fttol@lval 00A4                         ?_main 0001  
             __end_of___ftadd 1312               __end_of___ftdiv 160A               __end_of___ftneg 1FB8  
                i2___lwtoft@c 0009                         _T0CON 000FD5                         _T1CON 000FCD  
             __end_of___fttol 174E                         _T3CON 000FB1                         i2l351 1356  
                       i2l328 1B7E                         i2l408 20A2                         i2l355 1380  
                       i2l366 1430                         i2l375 144C                         i2l386 1A02  
                       _TMR0H 000FD7                         _TMR1H 000FCF                         _TMR0L 000FD6  
                       _TMR1L 000FCE                         _TMR3H 000FB3                         _TMR3L 000FB2  
                       _TRISB 000F93                 ___ftpack@sign 0075               __end_of_low_isr 10A6  
                       pclath 000FFA                         tablat 000FF5                         status 000FD8  
               i2___ftdiv@exp 0019            __size_ofi2___ftadd 01AC            __size_ofi2___ftdiv 00E6  
          __size_ofi2___ftneg 0024            __size_ofi2___fttol 00F4               __initialization 20B0  
                __end_of_main 1F88                   ?i2___ftpack 0001                        ??_main 00AD  
               ___fttol@sign1 00A3                   ?i2___lwtoft 0009                 __activetblptr 000000  
                      _ANSELB 000F5C              __end_of___ftpack 185A                        i2l1321 1B00  
                      i2l1333 1B4C                        i2l1325 1B0E                        i2l1335 1B6A  
                      i2l1327 1B18                        i2l1337 1B74                        i2l1329 1B36  
                      i2l1531 1364                        i2l1605 199E                        i2l1561 13EA  
                      i2l1553 13BE                        i2l1537 138E                        i2l1625 19DC  
                      i2l1571 141E                        i2l1563 13F4                        i2l1811 1A9C  
                      i2l1803 1A84                        i2l1573 1428                        i2l1565 13FC  
                      i2l1559 13E0                        i2l1671 18FC                        i2l1681 1926  
                      i2l1649 1886                        i2l1579 1468                        i2l1667 18EC  
                      i2l1763 1EB0                        i2l1589 1498                        i2l1685 193C  
                      i2l1677 1914                        i2l1781 1E96                        i2l1599 1976  
                      i2l1679 1920                        i2l1775 1E22                        i2l1769 1F24  
                      i2l1793 1E08                        i2l1787 1D94                        _INTCON 000FF2  
                      u153_41 1322                        u154_41 1336                        u180_41 186A  
                      u174_41 195E                        u176_41 1986              __end_of___lwtoft 203E  
        __size_of_config_TMR0 002A          __size_of_config_TMR1 002E          __size_of_config_TMR3 002E  
            __end_of_high_isr 1AF0      start_TMR0ms@milliseconds 00A9                     ??___ftadd 0094  
                   ??___ftdiv 0082                     ??___ftneg 008E                     ??___fttol 009E  
     config_TMR1@clock_source 0071             __end_ofi2___ftadd 14BE             __end_ofi2___ftdiv 1A34  
              i2___ftadd@exp1 0029                i2___ftadd@exp2 0028             __end_ofi2___ftneg 20B0  
           __end_ofi2___fttol 194E                i2___ftadd@sign 0027                     ??_low_isr 0060  
                      tblptrh 000FF7                        tblptrl 000FF6                        tblptru 000FF8  
              i2_start_TMR0ms 1E9A                i2_start_TMR1ms 1E0C                i2_start_TMR3ms 1D7E  
              i2___ftdiv@cntr 0015                    __accesstop 0060       __end_of__initialization 20B0  
              i2___ftdiv@sign 001A                    ___ftadd@f1 008E                    ___ftadd@f2 0091  
         __size_ofi2___ftpack 00AE                 ___rparam_used 000001                    ___ftdiv@f1 007C  
                  ___ftdiv@f2 007F                    ___ftdiv@f3 0086           __size_ofi2___lwtoft 0024  
                  ___ftneg@f1 008B                i2___ftpack@arg 0001                i2___ftpack@exp 0004  
                  ___fttol@f1 009A  config_TMR0@check_flag_method 0072  config_TMR3@check_flag_method 0072  
              __pcstackCOMRAM 0001                i2___fttol@exp1 0038                    ___lwtoft@c 0079  
              i2___fttol@lval 0034        __end_ofi2_start_TMR0ms 1F28        __end_ofi2_start_TMR1ms 1E9A  
      __end_ofi2_start_TMR3ms 1E0C         start_TMR0ms@temp_time 00AB                     ?___ftpack 0071  
                   ?___lwtoft 0079               ?i2_start_TMR0ms 0039               ?i2_start_TMR1ms 0039  
             ?i2_start_TMR3ms 0039         start_TMR1ms@temp_time 00AB                     ?_high_isr 0001  
                     __Hparam 0000                       __Lparam 0000                       ___ftadd 10AA  
                     ___ftdiv 14BE                       ___ftneg 1F88                       ___fttol 160A  
                     __pcinit 20B0                  ??i2___ftpack 0006                    ??___ftpack 0076  
                     __ramtop 0800                       __ptext0 1F28                       __ptext1 1B9E  
                     __ptext2 1C3E                       __ptext3 1CDE                       __ptext4 2014  
                     __ptext5 160A                       __ptext6 1F88                       __ptext7 14BE  
                     __ptext8 10AA                       __ptext9 174E                  ??i2___lwtoft 000C  
                  ??___lwtoft 007C                     _T0CONbits 000FD5                     _T1CONbits 000FCD  
                   _T3CONbits 000FB1                       _low_isr 1018                    ??_high_isr 003D  
              __pintcode_body 1A34          end_of_initialization 20B0                       int_func 1A34  
          __end_ofi2___ftpack 1B9E            __end_ofi2___lwtoft 208C    i2start_TMR1ms@milliseconds 0039  
     config_TMR3@clock_source 0071       i2start_TMR0ms@temp_time 003B         start_TMR3ms@temp_time 00AB  
                   i2___ftadd 1312                     i2___ftdiv 194E                     i2___ftneg 208C  
                   i2___fttol 185A                   ___ftdiv@exp 0089                 ??_config_TMR0 0072  
               ??_config_TMR1 0072                 ??_config_TMR3 0072               i2___ftpack@sign 0005  
               ?_start_TMR0ms 00A9                 ?_start_TMR1ms 00A9                 ?_start_TMR3ms 00A9  
     i2start_TMR1ms@temp_time 003B    i2start_TMR3ms@milliseconds 0039           start_initialization 20B0  
             i2___fttol@sign1 0033                    ?i2___ftadd 001E                    ?i2___ftdiv 000C  
                  ?i2___ftneg 001B                    ?i2___fttol 002A  config_TMR1@check_flag_method 0072  
         __end_of_config_TMR0 2068           __end_of_config_TMR1 2014           __end_of_config_TMR3 1FE6  
            ??i2_start_TMR0ms 003B              ??i2_start_TMR1ms 003B              ??i2_start_TMR3ms 003B  
              ??_start_TMR0ms 00AB                ??_start_TMR1ms 00AB                ??_start_TMR3ms 00AB  
           __size_of___ftpack 010C             __size_of___lwtoft 002A                 __pcstackBANK0 0060  
           __size_of_high_isr 0AE8                     __pintcode 1008                      ?___ftadd 008E  
                    ?___ftdiv 007C                      ?___ftneg 008B                      ?___fttol 009A  
                 __pintcodelo 1018       i2start_TMR3ms@temp_time 003B                      ?_low_isr 0001  
                 ??i2___ftadd 0024                   ??i2___ftdiv 0012                   ??i2___ftneg 001E  
                 ??i2___fttol 002E                   _config_TMR0 203E                   _config_TMR1 1FE6  
                 _config_TMR3 1FB8                      _PIE1bits 000F9D                      _PIE2bits 000FA0  
                    i2u182_40 18A4                      i2u182_45 189C                      _PIR1bits 000F9E  
                    _PIR2bits 000FA1                      i2u198_40 1E18                      i2u199_40 1D8A  
    start_TMR1ms@milliseconds 00A9          __end_of_start_TMR0ms 1D7E          __end_of_start_TMR1ms 1CDE  
        __end_of_start_TMR3ms 1C3E                      __Hrparam 0000                      __Lrparam 0000  
            __size_of___ftadd 0268              __size_of___ftdiv 014C              __size_of___ftneg 0030  
            __size_of___fttol 0144                      ___ftpack 174E                      ___lwtoft 2014  
    start_TMR3ms@milliseconds 00A9              __size_of_low_isr 008E                      __ptext10 1FB8  
                    __ptext11 1FE6                      __ptext20 208C                      __ptext12 203E  
                    __ptext21 194E                      __ptext22 1312                      __ptext23 1AF0  
                    __ptext15 1D7E                      __ptext16 1E0C                      __ptext17 1E9A  
                    __ptext18 2068                      __ptext19 185A                      _high_isr 1008  
               __size_of_main 0060                      int$flags 004B                    _INTCONbits 000FF2  
                    intlevel1 0000                      intlevel2 0000    i2start_TMR0ms@milliseconds 0039  
       __size_of_start_TMR0ms 00A0         __size_of_start_TMR1ms 00A0         __size_of_start_TMR3ms 00A0  
                ?_config_TMR0 0071                  ?_config_TMR1 0071                  ?_config_TMR3 0071  
