

Microchip Technology PIC18 LITE Macro Assembler V1.42 build -159332390 
                                                                                               Sun Apr 08 15:27:35 2018

Microchip Technology Omniscient Code Generator v1.42 (Free mode) build 201704130522
     1                           	processor	18F45K50
     2                           	fnconf	rparam,??,?,0
     3                           	opt	pw 120
     4                           	opt	lm
     5                           	psect	cinit,global,reloc=2,class=CODE,delta=1
     6                           	psect	bssCOMRAM,global,class=COMRAM,space=1,delta=1,noexec
     7                           	psect	cstackCOMRAM,global,class=COMRAM,space=1,delta=1,noexec
     8                           	psect	text0,global,reloc=2,class=CODE,delta=1
     9                           	psect	text1,global,reloc=2,class=CODE,delta=1
    10                           	psect	text2,global,reloc=2,class=CODE,delta=1
    11                           	psect	text3,global,reloc=2,class=CODE,delta=1
    12                           	psect	text4,global,reloc=2,class=CODE,delta=1
    13                           	psect	text5,global,reloc=2,class=CODE,delta=1
    14                           	psect	text6,global,reloc=2,class=CODE,delta=1
    15                           	psect	text7,global,reloc=2,class=CODE,delta=1
    16                           	psect	text8,global,reloc=2,class=CODE,delta=1
    17                           	psect	text9,global,reloc=2,class=CODE,delta=1
    18                           	psect	text10,global,reloc=2,class=CODE,delta=1,group=1
    19                           	psect	text11,global,reloc=2,class=CODE,delta=1,group=1
    20                           	psect	text12,global,reloc=2,class=CODE,delta=1,group=1
    21                           	psect	text13,global,reloc=2,class=CODE,delta=1,group=1
    22                           	psect	text14,global,reloc=2,class=CODE,delta=1,group=1
    23                           	psect	text15,global,reloc=2,class=CODE,delta=1,group=1
    24                           	psect	text16,global,reloc=2,class=CODE,delta=1
    25                           	psect	text17,global,reloc=2,class=CODE,delta=1
    26                           	psect	text18,global,reloc=2,class=CODE,delta=1
    27                           	psect	intsave_regs,global,class=BIGRAM,space=1,delta=1,noexec
    28                           	psect	rparam,global,class=COMRAM,space=1,delta=1,noexec
    29  0000                     
    30                           ; Version 1.42
    31                           ; Generated 13/04/2017 GMT
    32                           ; 
    33                           ; Copyright © 2017, Microchip Technology Inc. and its subsidiaries ("Microchip")
    34                           ; All rights reserved.
    35                           ; 
    36                           ; This software is developed by Microchip Technology Inc. and its subsidiaries ("Microch
      +                          ip").
    37                           ; 
    38                           ; Redistribution and use in source and binary forms, with or without modification, are
    39                           ; permitted provided that the following conditions are met:
    40                           ; 
    41                           ;     1. Redistributions of source code must retain the above copyright notice, this lis
      +                          t of
    42                           ;        conditions and the following disclaimer.
    43                           ; 
    44                           ;     2. Redistributions in binary form must reproduce the above copyright notice, this 
      +                          list
    45                           ;        of conditions and the following disclaimer in the documentation and/or other
    46                           ;        materials provided with the distribution.
    47                           ; 
    48                           ;     3. Microchip's name may not be used to endorse or promote products derived from th
      +                          is
    49                           ;        software without specific prior written permission.
    50                           ; 
    51                           ; THIS SOFTWARE IS PROVIDED BY MICROCHIP "AS IS" AND ANY EXPRESS OR IMPLIED WARRANTIES,
    52                           ; INCLUDING, BUT NOT LIMITED TO, THE IMPLIED WARRANTIES OF MERCHANTABILITY AND FITNESS F
      +                          OR
    53                           ; PURPOSE ARE DISCLAIMED.  IN NO EVENT SHALL MICROCHIP BE LIABLE FOR ANY DIRECT, INDIREC
      +                          T,
    54                           ; INCIDENTAL, SPECIAL, EXEMPLARY, OR CONSEQUENTIAL DAMAGES (INCLUDING BUT NOT LIMITED TO
    55                           ; PROCUREMENT OF SUBSTITUTE GOODS OR SERVICES; LOSS OF USE, DATA OR PROFITS; OR BUSINESS
    56                           ; INTERRUPTION) HOWSOEVER CAUSED AND ON ANY THEORY OF LIABILITY, WHETHER IN CONTRACT, ST
      +                          RICT
    57                           ; LIABILITY, OR TORT (INCLUDING NEGLIGENCE OR OTHERWISE) ARISING IN ANY WAY OUT OF THE U
      +                          SE OF
    58                           ; THIS SOFTWARE, EVEN IF ADVISED OF THE POSSIBILITY OF SUCH DAMAGE.
    59                           ; 
    60                           ; 
    61                           ; Code-generator required, PIC18F45K50 Definitions
    62                           ; 
    63                           ; SFR Addresses
    64  0000                     _ANSELB	set	3932
    65  0000                     _INTCON	set	4082
    66  0000                     _PIR2	set	4001
    67  0000                     _PIR1	set	3998
    68  0000                     _LATB	set	3978
    69  0000                     _TRISB	set	3987
    70  0000                     _PIR2bits	set	4001
    71  0000                     _TMR3L	set	4018
    72  0000                     _TMR3H	set	4019
    73  0000                     _T3CON	set	4017
    74  0000                     _PIE2bits	set	4000
    75  0000                     _PIR1bits	set	3998
    76  0000                     _TMR1L	set	4046
    77  0000                     _TMR1H	set	4047
    78  0000                     _T1CON	set	4045
    79  0000                     _PIE1bits	set	3997
    80  0000                     _TMR0L	set	4054
    81  0000                     _TMR0H	set	4055
    82  0000                     _T0CON	set	4053
    83  0000                     _INTCONbits	set	4082
    84                           
    85                           ; #config settings
    86                           
    87                           	psect	cinit
    88  007930                     __pcinit:
    89                           	opt stack 0
    90  007930                     start_initialization:
    91                           	opt stack 0
    92  007930                     __initialization:
    93                           	opt stack 0
    94                           
    95                           ; Clear objects allocated to COMRAM (6 bytes)
    96  007930  6A42               	clrf	(__pbssCOMRAM+5)& (0+255),c
    97  007932  6A41               	clrf	(__pbssCOMRAM+4)& (0+255),c
    98  007934  6A40               	clrf	(__pbssCOMRAM+3)& (0+255),c
    99  007936  6A3F               	clrf	(__pbssCOMRAM+2)& (0+255),c
   100  007938  6A3E               	clrf	(__pbssCOMRAM+1)& (0+255),c
   101  00793A  6A3D               	clrf	__pbssCOMRAM& (0+255),c
   102  00793C                     end_of_initialization:
   103                           	opt stack 0
   104  00793C                     __end_of__initialization:
   105                           	opt stack 0
   106  00793C  0100               	movlb	0
   107  00793E  EFC5  F03C         	goto	_main	;jump to C main() function
   108                           
   109                           	psect	bssCOMRAM
   110  00003D                     __pbssCOMRAM:
   111                           	opt stack 0
   112  00003D                     _TMR3_TimerValue:
   113                           	opt stack 0
   114  00003D                     	ds	2
   115  00003F                     _TMR1_TimerValue:
   116                           	opt stack 0
   117  00003F                     	ds	2
   118  000041                     _TMR0_TimerValue:
   119                           	opt stack 0
   120  000041                     	ds	2
   121                           
   122                           	psect	cstackCOMRAM
   123  000001                     __pcstackCOMRAM:
   124                           	opt stack 0
   125  000001                     ?___ftpack:
   126                           	opt stack 0
   127  000001                     TMR0_Config@clock_source:
   128                           	opt stack 0
   129  000001                     TMR1_Config@clock_source:
   130                           	opt stack 0
   131  000001                     TMR3_Config@clock_source:
   132                           	opt stack 0
   133  000001                     ___ftpack@arg:
   134                           	opt stack 0
   135                           
   136                           ; 3 bytes @ 0x0
   137  000001                     	ds	3
   138  000004                     ___ftpack@exp:
   139                           	opt stack 0
   140                           
   141                           ; 1 bytes @ 0x3
   142  000004                     	ds	1
   143  000005                     ___ftpack@sign:
   144                           	opt stack 0
   145                           
   146                           ; 1 bytes @ 0x4
   147  000005                     	ds	1
   148  000006                     ??___ftpack:
   149                           
   150                           ; 1 bytes @ 0x5
   151  000006                     	ds	3
   152  000009                     ?___lwtoft:
   153                           	opt stack 0
   154  000009                     ___lwtoft@c:
   155                           	opt stack 0
   156                           
   157                           ; 2 bytes @ 0x8
   158  000009                     	ds	3
   159  00000C                     ?___ftdiv:
   160                           	opt stack 0
   161  00000C                     ___ftdiv@f1:
   162                           	opt stack 0
   163                           
   164                           ; 3 bytes @ 0xB
   165  00000C                     	ds	3
   166  00000F                     ___ftdiv@f2:
   167                           	opt stack 0
   168                           
   169                           ; 3 bytes @ 0xE
   170  00000F                     	ds	3
   171  000012                     ??___ftdiv:
   172                           
   173                           ; 1 bytes @ 0x11
   174  000012                     	ds	3
   175  000015                     ___ftdiv@cntr:
   176                           	opt stack 0
   177                           
   178                           ; 1 bytes @ 0x14
   179  000015                     	ds	1
   180  000016                     ___ftdiv@f3:
   181                           	opt stack 0
   182                           
   183                           ; 3 bytes @ 0x15
   184  000016                     	ds	3
   185  000019                     ___ftdiv@exp:
   186                           	opt stack 0
   187                           
   188                           ; 1 bytes @ 0x18
   189  000019                     	ds	1
   190  00001A                     ___ftdiv@sign:
   191                           	opt stack 0
   192                           
   193                           ; 1 bytes @ 0x19
   194  00001A                     	ds	1
   195  00001B                     ?___ftneg:
   196                           	opt stack 0
   197  00001B                     ___ftneg@f1:
   198                           	opt stack 0
   199                           
   200                           ; 3 bytes @ 0x1A
   201  00001B                     	ds	3
   202  00001E                     ?___ftadd:
   203                           	opt stack 0
   204  00001E                     ___ftadd@f1:
   205                           	opt stack 0
   206                           
   207                           ; 3 bytes @ 0x1D
   208  00001E                     	ds	3
   209  000021                     ___ftadd@f2:
   210                           	opt stack 0
   211                           
   212                           ; 3 bytes @ 0x20
   213  000021                     	ds	3
   214  000024                     ??___ftadd:
   215                           
   216                           ; 1 bytes @ 0x23
   217  000024                     	ds	3
   218  000027                     ___ftadd@sign:
   219                           	opt stack 0
   220                           
   221                           ; 1 bytes @ 0x26
   222  000027                     	ds	1
   223  000028                     ___ftadd@exp2:
   224                           	opt stack 0
   225                           
   226                           ; 1 bytes @ 0x27
   227  000028                     	ds	1
   228  000029                     ___ftadd@exp1:
   229                           	opt stack 0
   230                           
   231                           ; 1 bytes @ 0x28
   232  000029                     	ds	1
   233  00002A                     ?___fttol:
   234                           	opt stack 0
   235  00002A                     ___fttol@f1:
   236                           	opt stack 0
   237                           
   238                           ; 3 bytes @ 0x29
   239  00002A                     	ds	4
   240  00002E                     ??___fttol:
   241                           
   242                           ; 1 bytes @ 0x2D
   243  00002E                     	ds	5
   244  000033                     ___fttol@sign1:
   245                           	opt stack 0
   246                           
   247                           ; 1 bytes @ 0x32
   248  000033                     	ds	1
   249  000034                     ___fttol@lval:
   250                           	opt stack 0
   251                           
   252                           ; 4 bytes @ 0x33
   253  000034                     	ds	4
   254  000038                     ___fttol@exp1:
   255                           	opt stack 0
   256                           
   257                           ; 1 bytes @ 0x37
   258  000038                     	ds	1
   259  000039                     TMR0_Start@milliseconds:
   260                           	opt stack 0
   261  000039                     TMR1_Start@milliseconds:
   262                           	opt stack 0
   263  000039                     TMR3_Start@milliseconds:
   264                           	opt stack 0
   265                           
   266                           ; 2 bytes @ 0x38
   267  000039                     	ds	2
   268  00003B                     TMR0_Start@temp_time:
   269                           	opt stack 0
   270  00003B                     TMR1_Start@temp_time:
   271                           	opt stack 0
   272  00003B                     TMR3_Start@temp_time:
   273                           	opt stack 0
   274                           
   275                           ; 2 bytes @ 0x3A
   276  00003B                     	ds	2
   277  00003D                     
   278                           ; 1 bytes @ 0x3C
   279 ;;
   280 ;;Main: autosize = 0, tempsize = 0, incstack = 0, save=0
   281 ;;
   282 ;; *************** function _main *****************
   283 ;; Defined at:
   284 ;;		line 21 in file "main.c"
   285 ;; Parameters:    Size  Location     Type
   286 ;;		None
   287 ;; Auto vars:     Size  Location     Type
   288 ;;		None
   289 ;; Return value:  Size  Location     Type
   290 ;;                  1    wreg      void 
   291 ;; Registers used:
   292 ;;		wreg, status,2, status,0, cstack
   293 ;; Tracked objects:
   294 ;;		On entry : 0/0
   295 ;;		On exit  : 0/0
   296 ;;		Unchanged: 0/0
   297 ;; Data sizes:     COMRAM   BANK0   BANK1   BANK2   BANK3   BANK4   BANK5   BANK6   BANK7
   298 ;;      Params:         0       0       0       0       0       0       0       0       0
   299 ;;      Locals:         0       0       0       0       0       0       0       0       0
   300 ;;      Temps:          0       0       0       0       0       0       0       0       0
   301 ;;      Totals:         0       0       0       0       0       0       0       0       0
   302 ;;Total ram usage:        0 bytes
   303 ;; Hardware stack levels required when called:    3
   304 ;; This function calls:
   305 ;;		_TMR0_Config
   306 ;;		_TMR0_Restart
   307 ;;		_TMR0_Start
   308 ;;		_TMR1_Config
   309 ;;		_TMR1_Restart
   310 ;;		_TMR1_Start
   311 ;;		_TMR3_Config
   312 ;;		_TMR3_Restart
   313 ;;		_TMR3_Start
   314 ;; This function is called by:
   315 ;;		Startup code after reset
   316 ;; This function uses a non-reentrant model
   317 ;;
   318                           
   319                           	psect	text0
   320  00798A                     __ptext0:
   321                           	opt stack 0
   322  00798A                     _main:
   323                           	opt stack 28
   324                           
   325                           ;main.c: 23: ANSELB = TRISB = LATB = 0;
   326                           
   327                           ;incstack = 0
   328  00798A  0E00               	movlw	0
   329  00798C  6E8A               	movwf	3978,c	;volatile
   330  00798E  CF8A FF93          	movff	3978,3987	;volatile
   331  007992  CF93 FF5C          	movff	3987,3932	;volatile
   332                           
   333                           ;main.c: 30: TMR0_Config(TMR0_CLOCK_SOURCE_INTERNAL);
   334  007996  0E00               	movlw	0
   335  007998  EC68  F03C         	call	_TMR0_Config
   336                           
   337                           ;main.c: 31: TMR1_Config(TMR1_CLOCK_SOURCE_FOSC4);
   338  00799C  0E00               	movlw	0
   339  00799E  EC78  F03C         	call	_TMR1_Config
   340                           
   341                           ;main.c: 32: TMR3_Config(TMR3_CLOCK_SOURCE_FOSC4);
   342  0079A2  0E00               	movlw	0
   343  0079A4  EC88  F03C         	call	_TMR3_Config
   344                           
   345                           ;main.c: 34: TMR0_Start(300);
   346  0079A8  0E01               	movlw	1
   347  0079AA  6E3A               	movwf	TMR0_Start@milliseconds+1,c
   348  0079AC  0E2C               	movlw	44
   349  0079AE  6E39               	movwf	TMR0_Start@milliseconds,c
   350  0079B0  ECF9  F03C         	call	_TMR0_Start	;wreg free
   351                           
   352                           ;main.c: 35: TMR1_Start(25);
   353  0079B4  0E00               	movlw	0
   354  0079B6  6E3A               	movwf	TMR1_Start@milliseconds+1,c
   355  0079B8  0E19               	movlw	25
   356  0079BA  6E39               	movwf	TMR1_Start@milliseconds,c
   357  0079BC  EC48  F03D         	call	_TMR1_Start	;wreg free
   358                           
   359                           ;main.c: 36: TMR3_Start(100);
   360  0079C0  0E00               	movlw	0
   361  0079C2  6E3A               	movwf	TMR3_Start@milliseconds+1,c
   362  0079C4  0E64               	movlw	100
   363  0079C6  6E39               	movwf	TMR3_Start@milliseconds,c
   364  0079C8  EC97  F03D         	call	_TMR3_Start	;wreg free
   365  0079CC                     l1335:
   366                           
   367                           ;main.c: 39: {
   368                           ;main.c: 40: if ((PIR1 & 1))
   369  0079CC  A09E               	btfss	3998,0,c	;volatile
   370  0079CE  D004               	goto	l1341
   371                           
   372                           ;main.c: 41: {
   373                           ;main.c: 42: LATB ^= 1;
   374  0079D0  0E01               	movlw	1
   375  0079D2  1A8A               	xorwf	3978,f,c	;volatile
   376                           
   377                           ;main.c: 43: TMR1_Restart();
   378  0079D4  EC80  F03C         	call	_TMR1_Restart	;wreg free
   379  0079D8                     l1341:
   380                           
   381                           ;main.c: 44: }
   382                           ;main.c: 46: if ((PIR2 & (1 << 1)))
   383  0079D8  A2A1               	btfss	4001,1,c	;volatile
   384  0079DA  D004               	goto	l1347
   385                           
   386                           ;main.c: 47: {
   387                           ;main.c: 48: LATB ^= (1 << 1);
   388  0079DC  0E02               	movlw	2
   389  0079DE  1A8A               	xorwf	3978,f,c	;volatile
   390                           
   391                           ;main.c: 49: TMR3_Restart();
   392  0079E0  EC90  F03C         	call	_TMR3_Restart	;wreg free
   393  0079E4                     l1347:
   394                           
   395                           ;main.c: 50: }
   396                           ;main.c: 52: if ((INTCON & (1 << 2)))
   397  0079E4  A4F2               	btfss	intcon,2,c	;volatile
   398  0079E6  D7F2               	goto	l1335
   399                           
   400                           ;main.c: 53: {
   401                           ;main.c: 54: LATB ^= (1 << 2);
   402  0079E8  0E04               	movlw	4
   403  0079EA  1A8A               	xorwf	3978,f,c	;volatile
   404                           
   405                           ;main.c: 55: TMR0_Restart();
   406  0079EC  EC70  F03C         	call	_TMR0_Restart	;wreg free
   407  0079F0  D7ED               	goto	l1335
   408  0079F2                     __end_of_main:
   409                           	opt stack 0
   410                           intcon	equ	0xFF2
   411                           
   412 ;; *************** function _TMR3_Start *****************
   413 ;; Defined at:
   414 ;;		line 447 in file "timers.c"
   415 ;; Parameters:    Size  Location     Type
   416 ;;  milliseconds    2   56[COMRAM] unsigned short 
   417 ;; Auto vars:     Size  Location     Type
   418 ;;  temp_time       2   58[COMRAM] unsigned short 
   419 ;; Return value:  Size  Location     Type
   420 ;;                  1    wreg      void 
   421 ;; Registers used:
   422 ;;		wreg, status,2, status,0, cstack
   423 ;; Tracked objects:
   424 ;;		On entry : 0/0
   425 ;;		On exit  : 0/0
   426 ;;		Unchanged: 0/0
   427 ;; Data sizes:     COMRAM   BANK0   BANK1   BANK2   BANK3   BANK4   BANK5   BANK6   BANK7
   428 ;;      Params:         2       0       0       0       0       0       0       0       0
   429 ;;      Locals:         2       0       0       0       0       0       0       0       0
   430 ;;      Temps:          0       0       0       0       0       0       0       0       0
   431 ;;      Totals:         4       0       0       0       0       0       0       0       0
   432 ;;Total ram usage:        4 bytes
   433 ;; Hardware stack levels used:    1
   434 ;; Hardware stack levels required when called:    2
   435 ;; This function calls:
   436 ;;		___ftadd
   437 ;;		___ftdiv
   438 ;;		___ftneg
   439 ;;		___fttol
   440 ;;		___lwtoft
   441 ;; This function is called by:
   442 ;;		_main
   443 ;; This function uses a non-reentrant model
   444 ;;
   445                           
   446                           	psect	text1
   447  007B2E                     __ptext1:
   448                           	opt stack 0
   449  007B2E                     _TMR3_Start:
   450                           	opt stack 28
   451                           
   452                           ;timers.c: 448: UInt16_T temp_time;
   453                           ;timers.c: 450: if (milliseconds > 131){
   454                           
   455                           ;incstack = 0
   456  007B2E  503A               	movf	TMR3_Start@milliseconds+1,w,c
   457  007B30  E104               	bnz	u950
   458  007B32  0E84               	movlw	132
   459  007B34  5C39               	subwf	TMR3_Start@milliseconds,w,c
   460  007B36  A0D8               	btfss	status,0,c
   461  007B38  D009               	goto	l1311
   462  007B3A                     u950:
   463                           
   464                           ;timers.c: 452: TMR3_TimerValue = 0;
   465  007B3A  0E00               	movlw	0
   466  007B3C  6E3E               	movwf	_TMR3_TimerValue+1,c
   467  007B3E  0E00               	movlw	0
   468  007B40  6E3D               	movwf	_TMR3_TimerValue,c
   469                           
   470                           ;timers.c: 453: TMR3H = 0;
   471  007B42  0E00               	movlw	0
   472  007B44  6EB3               	movwf	4019,c	;volatile
   473                           
   474                           ;timers.c: 454: TMR3L = 0;
   475  007B46  0E00               	movlw	0
   476  007B48  6EB2               	movwf	4018,c	;volatile
   477                           
   478                           ;timers.c: 455: }
   479  007B4A  D03E               	goto	l1319
   480  007B4C                     l1311:
   481                           
   482                           ;timers.c: 456: else{
   483                           ;timers.c: 463: temp_time = (UInt16_T)(65536 - (milliseconds / 0.002));
   484  007B4C  0E00               	movlw	0
   485  007B4E  6E21               	movwf	___ftadd@f2,c
   486  007B50  0E80               	movlw	128
   487  007B52  6E22               	movwf	___ftadd@f2+1,c
   488  007B54  0E47               	movlw	71
   489  007B56  6E23               	movwf	___ftadd@f2+2,c
   490  007B58  0E12               	movlw	18
   491  007B5A  6E0F               	movwf	___ftdiv@f2,c
   492  007B5C  0E03               	movlw	3
   493  007B5E  6E10               	movwf	___ftdiv@f2+1,c
   494  007B60  0E3B               	movlw	59
   495  007B62  6E11               	movwf	___ftdiv@f2+2,c
   496  007B64  C039  F009         	movff	TMR3_Start@milliseconds,___lwtoft@c
   497  007B68  C03A  F00A         	movff	TMR3_Start@milliseconds+1,___lwtoft@c+1
   498  007B6C  ECB3  F03C         	call	___lwtoft	;wreg free
   499  007B70  C009  F00C         	movff	?___lwtoft,___ftdiv@f1
   500  007B74  C00A  F00D         	movff	?___lwtoft+1,___ftdiv@f1+1
   501  007B78  C00B  F00E         	movff	?___lwtoft+2,___ftdiv@f1+2
   502  007B7C  EC3D  F03E         	call	___ftdiv	;wreg free
   503  007B80  C00C  F01B         	movff	?___ftdiv,___ftneg@f1
   504  007B84  C00D  F01C         	movff	?___ftdiv+1,___ftneg@f1+1
   505  007B88  C00E  F01D         	movff	?___ftdiv+2,___ftneg@f1+2
   506  007B8C  ECA1  F03C         	call	___ftneg	;wreg free
   507  007B90  C01B  F01E         	movff	?___ftneg,___ftadd@f1
   508  007B94  C01C  F01F         	movff	?___ftneg+1,___ftadd@f1+1
   509  007B98  C01D  F020         	movff	?___ftneg+2,___ftadd@f1+2
   510  007B9C  EC2A  F03F         	call	___ftadd	;wreg free
   511  007BA0  C01E  F02A         	movff	?___ftadd,___fttol@f1
   512  007BA4  C01F  F02B         	movff	?___ftadd+1,___fttol@f1+1
   513  007BA8  C020  F02C         	movff	?___ftadd+2,___fttol@f1+2
   514  007BAC  ECB0  F03E         	call	___fttol	;wreg free
   515  007BB0  C02A  F03B         	movff	?___fttol,TMR3_Start@temp_time
   516  007BB4  C02B  F03C         	movff	?___fttol+1,TMR3_Start@temp_time+1
   517                           
   518                           ;timers.c: 465: TMR3_TimerValue = temp_time;
   519  007BB8  C03B  F03D         	movff	TMR3_Start@temp_time,_TMR3_TimerValue
   520  007BBC  C03C  F03E         	movff	TMR3_Start@temp_time+1,_TMR3_TimerValue+1
   521                           
   522                           ;timers.c: 467: TMR3H = (UInt8_T)(temp_time / 256);
   523  007BC0  503C               	movf	TMR3_Start@temp_time+1,w,c
   524  007BC2  6EB3               	movwf	4019,c	;volatile
   525                           
   526                           ;timers.c: 468: TMR3L = (UInt8_T)temp_time;
   527  007BC4  C03B  FFB2         	movff	TMR3_Start@temp_time,4018	;volatile
   528  007BC8                     l1319:
   529                           
   530                           ;timers.c: 469: }
   531                           ;timers.c: 471: T3CON |= (1);
   532  007BC8  80B1               	bsf	4017,0,c	;volatile
   533  007BCA  0012               	return		;funcret
   534  007BCC                     __end_of_TMR3_Start:
   535                           	opt stack 0
   536                           intcon	equ	0xFF2
   537                           status	equ	0xFD8
   538                           
   539 ;; *************** function _TMR3_Restart *****************
   540 ;; Defined at:
   541 ;;		line 486 in file "timers.c"
   542 ;; Parameters:    Size  Location     Type
   543 ;;		None
   544 ;; Auto vars:     Size  Location     Type
   545 ;;		None
   546 ;; Return value:  Size  Location     Type
   547 ;;                  1    wreg      void 
   548 ;; Registers used:
   549 ;;		wreg, status,2, status,0, cstack
   550 ;; Tracked objects:
   551 ;;		On entry : 0/0
   552 ;;		On exit  : 0/0
   553 ;;		Unchanged: 0/0
   554 ;; Data sizes:     COMRAM   BANK0   BANK1   BANK2   BANK3   BANK4   BANK5   BANK6   BANK7
   555 ;;      Params:         0       0       0       0       0       0       0       0       0
   556 ;;      Locals:         0       0       0       0       0       0       0       0       0
   557 ;;      Temps:          0       0       0       0       0       0       0       0       0
   558 ;;      Totals:         0       0       0       0       0       0       0       0       0
   559 ;;Total ram usage:        0 bytes
   560 ;; Hardware stack levels used:    1
   561 ;; Hardware stack levels required when called:    1
   562 ;; This function calls:
   563 ;;		_TMR3_Stop
   564 ;; This function is called by:
   565 ;;		_main
   566 ;; This function uses a non-reentrant model
   567 ;;
   568                           
   569                           	psect	text2
   570  007920                     __ptext2:
   571                           	opt stack 0
   572  007920                     _TMR3_Restart:
   573                           	opt stack 29
   574                           
   575                           ;timers.c: 488: TMR3_Stop();
   576                           
   577                           ;incstack = 0
   578  007920  EC65  F03C         	call	_TMR3_Stop	;wreg free
   579                           
   580                           ;timers.c: 489: TMR3H = (UInt8_T)(TMR3_TimerValue >> 8);
   581  007924  503E               	movf	_TMR3_TimerValue+1,w,c
   582  007926  6EB3               	movwf	4019,c	;volatile
   583                           
   584                           ;timers.c: 490: TMR3L = (UInt8_T)(TMR3_TimerValue);
   585  007928  C03D  FFB2         	movff	_TMR3_TimerValue,4018	;volatile
   586                           
   587                           ;timers.c: 491: T3CON |= (1);
   588  00792C  80B1               	bsf	4017,0,c	;volatile
   589  00792E  0012               	return		;funcret
   590  007930                     __end_of_TMR3_Restart:
   591                           	opt stack 0
   592                           intcon	equ	0xFF2
   593                           status	equ	0xFD8
   594                           
   595 ;; *************** function _TMR3_Stop *****************
   596 ;; Defined at:
   597 ;;		line 505 in file "timers.c"
   598 ;; Parameters:    Size  Location     Type
   599 ;;		None
   600 ;; Auto vars:     Size  Location     Type
   601 ;;		None
   602 ;; Return value:  Size  Location     Type
   603 ;;                  1    wreg      void 
   604 ;; Registers used:
   605 ;;		status,2, status,0
   606 ;; Tracked objects:
   607 ;;		On entry : 0/0
   608 ;;		On exit  : 0/0
   609 ;;		Unchanged: 0/0
   610 ;; Data sizes:     COMRAM   BANK0   BANK1   BANK2   BANK3   BANK4   BANK5   BANK6   BANK7
   611 ;;      Params:         0       0       0       0       0       0       0       0       0
   612 ;;      Locals:         0       0       0       0       0       0       0       0       0
   613 ;;      Temps:          0       0       0       0       0       0       0       0       0
   614 ;;      Totals:         0       0       0       0       0       0       0       0       0
   615 ;;Total ram usage:        0 bytes
   616 ;; Hardware stack levels used:    1
   617 ;; This function calls:
   618 ;;		Nothing
   619 ;; This function is called by:
   620 ;;		_TMR3_Restart
   621 ;; This function uses a non-reentrant model
   622 ;;
   623                           
   624                           	psect	text3
   625  0078CA                     __ptext3:
   626                           	opt stack 0
   627  0078CA                     _TMR3_Stop:
   628                           	opt stack 29
   629                           
   630                           ;timers.c: 507: PIR2bits.TMR3IF = 0;
   631                           
   632                           ;incstack = 0
   633  0078CA  92A1               	bcf	4001,1,c	;volatile
   634                           
   635                           ;timers.c: 508: T3CON &= (~ (1));
   636  0078CC  90B1               	bcf	4017,0,c	;volatile
   637  0078CE  0012               	return		;funcret
   638  0078D0                     __end_of_TMR3_Stop:
   639                           	opt stack 0
   640                           intcon	equ	0xFF2
   641                           status	equ	0xFD8
   642                           
   643 ;; *************** function _TMR3_Config *****************
   644 ;; Defined at:
   645 ;;		line 370 in file "timers.c"
   646 ;; Parameters:    Size  Location     Type
   647 ;;  clock_source    1    wreg     enum E5950
   648 ;; Auto vars:     Size  Location     Type
   649 ;;  clock_source    1    0[COMRAM] enum E5950
   650 ;; Return value:  Size  Location     Type
   651 ;;                  1    wreg      void 
   652 ;; Registers used:
   653 ;;		wreg, status,2, status,0
   654 ;; Tracked objects:
   655 ;;		On entry : 0/0
   656 ;;		On exit  : 0/0
   657 ;;		Unchanged: 0/0
   658 ;; Data sizes:     COMRAM   BANK0   BANK1   BANK2   BANK3   BANK4   BANK5   BANK6   BANK7
   659 ;;      Params:         0       0       0       0       0       0       0       0       0
   660 ;;      Locals:         1       0       0       0       0       0       0       0       0
   661 ;;      Temps:          0       0       0       0       0       0       0       0       0
   662 ;;      Totals:         1       0       0       0       0       0       0       0       0
   663 ;;Total ram usage:        1 bytes
   664 ;; Hardware stack levels used:    1
   665 ;; This function calls:
   666 ;;		Nothing
   667 ;; This function is called by:
   668 ;;		_main
   669 ;; This function uses a non-reentrant model
   670 ;;
   671                           
   672                           	psect	text4
   673  007910                     __ptext4:
   674                           	opt stack 0
   675  007910                     _TMR3_Config:
   676                           	opt stack 30
   677                           
   678                           ;incstack = 0
   679                           ;TMR3_Config@clock_source stored from wreg
   680  007910  6E01               	movwf	TMR3_Config@clock_source,c
   681                           
   682                           ;timers.c: 399: PIE2bits.TMR3IE = 0;
   683  007912  92A0               	bcf	4000,1,c	;volatile
   684                           
   685                           ;timers.c: 433: T3CON = (clock_source << 6) | (TMR3_PREESCALER_OF_8 << 4) | (TMR3_RW_MOD
      +                          E_16BIT << 1);
   686  007914  4001               	rrncf	TMR3_Config@clock_source,w,c
   687  007916  42E8               	rrncf	wreg,f,c
   688  007918  0BC0               	andlw	192
   689  00791A  0932               	iorlw	50
   690  00791C  6EB1               	movwf	4017,c	;volatile
   691  00791E  0012               	return		;funcret
   692  007920                     __end_of_TMR3_Config:
   693                           	opt stack 0
   694                           intcon	equ	0xFF2
   695                           wreg	equ	0xFE8
   696                           status	equ	0xFD8
   697                           
   698 ;; *************** function _TMR1_Start *****************
   699 ;; Defined at:
   700 ;;		line 276 in file "timers.c"
   701 ;; Parameters:    Size  Location     Type
   702 ;;  milliseconds    2   56[COMRAM] unsigned short 
   703 ;; Auto vars:     Size  Location     Type
   704 ;;  temp_time       2   58[COMRAM] unsigned short 
   705 ;; Return value:  Size  Location     Type
   706 ;;                  1    wreg      void 
   707 ;; Registers used:
   708 ;;		wreg, status,2, status,0, cstack
   709 ;; Tracked objects:
   710 ;;		On entry : 0/0
   711 ;;		On exit  : 0/0
   712 ;;		Unchanged: 0/0
   713 ;; Data sizes:     COMRAM   BANK0   BANK1   BANK2   BANK3   BANK4   BANK5   BANK6   BANK7
   714 ;;      Params:         2       0       0       0       0       0       0       0       0
   715 ;;      Locals:         2       0       0       0       0       0       0       0       0
   716 ;;      Temps:          0       0       0       0       0       0       0       0       0
   717 ;;      Totals:         4       0       0       0       0       0       0       0       0
   718 ;;Total ram usage:        4 bytes
   719 ;; Hardware stack levels used:    1
   720 ;; Hardware stack levels required when called:    2
   721 ;; This function calls:
   722 ;;		___ftadd
   723 ;;		___ftdiv
   724 ;;		___ftneg
   725 ;;		___fttol
   726 ;;		___lwtoft
   727 ;; This function is called by:
   728 ;;		_main
   729 ;; This function uses a non-reentrant model
   730 ;;
   731                           
   732                           	psect	text5
   733  007A90                     __ptext5:
   734                           	opt stack 0
   735  007A90                     _TMR1_Start:
   736                           	opt stack 28
   737                           
   738                           ;timers.c: 278: UInt16_T temp_time;
   739                           ;timers.c: 280: if (milliseconds > 131)
   740                           
   741                           ;incstack = 0
   742  007A90  503A               	movf	TMR1_Start@milliseconds+1,w,c
   743  007A92  E104               	bnz	u940
   744  007A94  0E84               	movlw	132
   745  007A96  5C39               	subwf	TMR1_Start@milliseconds,w,c
   746  007A98  A0D8               	btfss	status,0,c
   747  007A9A  D009               	goto	l1297
   748  007A9C                     u940:
   749                           
   750                           ;timers.c: 281: {
   751                           ;timers.c: 282: TMR1_TimerValue = 0;
   752  007A9C  0E00               	movlw	0
   753  007A9E  6E40               	movwf	_TMR1_TimerValue+1,c
   754  007AA0  0E00               	movlw	0
   755  007AA2  6E3F               	movwf	_TMR1_TimerValue,c
   756                           
   757                           ;timers.c: 283: TMR1H = 0;
   758  007AA4  0E00               	movlw	0
   759  007AA6  6ECF               	movwf	4047,c	;volatile
   760                           
   761                           ;timers.c: 284: TMR1L = 0;
   762  007AA8  0E00               	movlw	0
   763  007AAA  6ECE               	movwf	4046,c	;volatile
   764                           
   765                           ;timers.c: 285: }
   766  007AAC  D03E               	goto	l1305
   767  007AAE                     l1297:
   768                           
   769                           ;timers.c: 286: else
   770                           ;timers.c: 287: {
   771                           ;timers.c: 294: temp_time = (UInt16_T)(65536 - (milliseconds / 0.002));
   772  007AAE  0E00               	movlw	0
   773  007AB0  6E21               	movwf	___ftadd@f2,c
   774  007AB2  0E80               	movlw	128
   775  007AB4  6E22               	movwf	___ftadd@f2+1,c
   776  007AB6  0E47               	movlw	71
   777  007AB8  6E23               	movwf	___ftadd@f2+2,c
   778  007ABA  0E12               	movlw	18
   779  007ABC  6E0F               	movwf	___ftdiv@f2,c
   780  007ABE  0E03               	movlw	3
   781  007AC0  6E10               	movwf	___ftdiv@f2+1,c
   782  007AC2  0E3B               	movlw	59
   783  007AC4  6E11               	movwf	___ftdiv@f2+2,c
   784  007AC6  C039  F009         	movff	TMR1_Start@milliseconds,___lwtoft@c
   785  007ACA  C03A  F00A         	movff	TMR1_Start@milliseconds+1,___lwtoft@c+1
   786  007ACE  ECB3  F03C         	call	___lwtoft	;wreg free
   787  007AD2  C009  F00C         	movff	?___lwtoft,___ftdiv@f1
   788  007AD6  C00A  F00D         	movff	?___lwtoft+1,___ftdiv@f1+1
   789  007ADA  C00B  F00E         	movff	?___lwtoft+2,___ftdiv@f1+2
   790  007ADE  EC3D  F03E         	call	___ftdiv	;wreg free
   791  007AE2  C00C  F01B         	movff	?___ftdiv,___ftneg@f1
   792  007AE6  C00D  F01C         	movff	?___ftdiv+1,___ftneg@f1+1
   793  007AEA  C00E  F01D         	movff	?___ftdiv+2,___ftneg@f1+2
   794  007AEE  ECA1  F03C         	call	___ftneg	;wreg free
   795  007AF2  C01B  F01E         	movff	?___ftneg,___ftadd@f1
   796  007AF6  C01C  F01F         	movff	?___ftneg+1,___ftadd@f1+1
   797  007AFA  C01D  F020         	movff	?___ftneg+2,___ftadd@f1+2
   798  007AFE  EC2A  F03F         	call	___ftadd	;wreg free
   799  007B02  C01E  F02A         	movff	?___ftadd,___fttol@f1
   800  007B06  C01F  F02B         	movff	?___ftadd+1,___fttol@f1+1
   801  007B0A  C020  F02C         	movff	?___ftadd+2,___fttol@f1+2
   802  007B0E  ECB0  F03E         	call	___fttol	;wreg free
   803  007B12  C02A  F03B         	movff	?___fttol,TMR1_Start@temp_time
   804  007B16  C02B  F03C         	movff	?___fttol+1,TMR1_Start@temp_time+1
   805                           
   806                           ;timers.c: 296: TMR1_TimerValue = temp_time;
   807  007B1A  C03B  F03F         	movff	TMR1_Start@temp_time,_TMR1_TimerValue
   808  007B1E  C03C  F040         	movff	TMR1_Start@temp_time+1,_TMR1_TimerValue+1
   809                           
   810                           ;timers.c: 298: TMR1H = (UInt8_T)(temp_time / 256);
   811  007B22  503C               	movf	TMR1_Start@temp_time+1,w,c
   812  007B24  6ECF               	movwf	4047,c	;volatile
   813                           
   814                           ;timers.c: 299: TMR1L = (UInt8_T)temp_time;
   815  007B26  C03B  FFCE         	movff	TMR1_Start@temp_time,4046	;volatile
   816  007B2A                     l1305:
   817                           
   818                           ;timers.c: 300: }
   819                           ;timers.c: 302: T1CON |= (1);
   820  007B2A  80CD               	bsf	4045,0,c	;volatile
   821  007B2C  0012               	return		;funcret
   822  007B2E                     __end_of_TMR1_Start:
   823                           	opt stack 0
   824                           intcon	equ	0xFF2
   825                           wreg	equ	0xFE8
   826                           status	equ	0xFD8
   827                           
   828 ;; *************** function _TMR1_Restart *****************
   829 ;; Defined at:
   830 ;;		line 317 in file "timers.c"
   831 ;; Parameters:    Size  Location     Type
   832 ;;		None
   833 ;; Auto vars:     Size  Location     Type
   834 ;;		None
   835 ;; Return value:  Size  Location     Type
   836 ;;                  1    wreg      void 
   837 ;; Registers used:
   838 ;;		wreg, status,2, status,0, cstack
   839 ;; Tracked objects:
   840 ;;		On entry : 0/0
   841 ;;		On exit  : 0/0
   842 ;;		Unchanged: 0/0
   843 ;; Data sizes:     COMRAM   BANK0   BANK1   BANK2   BANK3   BANK4   BANK5   BANK6   BANK7
   844 ;;      Params:         0       0       0       0       0       0       0       0       0
   845 ;;      Locals:         0       0       0       0       0       0       0       0       0
   846 ;;      Temps:          0       0       0       0       0       0       0       0       0
   847 ;;      Totals:         0       0       0       0       0       0       0       0       0
   848 ;;Total ram usage:        0 bytes
   849 ;; Hardware stack levels used:    1
   850 ;; Hardware stack levels required when called:    1
   851 ;; This function calls:
   852 ;;		_TMR1_Stop
   853 ;; This function is called by:
   854 ;;		_main
   855 ;; This function uses a non-reentrant model
   856 ;;
   857                           
   858                           	psect	text6
   859  007900                     __ptext6:
   860                           	opt stack 0
   861  007900                     _TMR1_Restart:
   862                           	opt stack 29
   863                           
   864                           ;timers.c: 319: TMR1_Stop();
   865                           
   866                           ;incstack = 0
   867  007900  EC62  F03C         	call	_TMR1_Stop	;wreg free
   868                           
   869                           ;timers.c: 320: TMR1H = (UInt8_T)(TMR1_TimerValue >> 8);
   870  007904  5040               	movf	_TMR1_TimerValue+1,w,c
   871  007906  6ECF               	movwf	4047,c	;volatile
   872                           
   873                           ;timers.c: 321: TMR1L = (UInt8_T)(TMR1_TimerValue);
   874  007908  C03F  FFCE         	movff	_TMR1_TimerValue,4046	;volatile
   875                           
   876                           ;timers.c: 322: T1CON |= (1);
   877  00790C  80CD               	bsf	4045,0,c	;volatile
   878  00790E  0012               	return		;funcret
   879  007910                     __end_of_TMR1_Restart:
   880                           	opt stack 0
   881                           intcon	equ	0xFF2
   882                           wreg	equ	0xFE8
   883                           status	equ	0xFD8
   884                           
   885 ;; *************** function _TMR1_Stop *****************
   886 ;; Defined at:
   887 ;;		line 336 in file "timers.c"
   888 ;; Parameters:    Size  Location     Type
   889 ;;		None
   890 ;; Auto vars:     Size  Location     Type
   891 ;;		None
   892 ;; Return value:  Size  Location     Type
   893 ;;                  1    wreg      void 
   894 ;; Registers used:
   895 ;;		status,2, status,0
   896 ;; Tracked objects:
   897 ;;		On entry : 0/0
   898 ;;		On exit  : 0/0
   899 ;;		Unchanged: 0/0
   900 ;; Data sizes:     COMRAM   BANK0   BANK1   BANK2   BANK3   BANK4   BANK5   BANK6   BANK7
   901 ;;      Params:         0       0       0       0       0       0       0       0       0
   902 ;;      Locals:         0       0       0       0       0       0       0       0       0
   903 ;;      Temps:          0       0       0       0       0       0       0       0       0
   904 ;;      Totals:         0       0       0       0       0       0       0       0       0
   905 ;;Total ram usage:        0 bytes
   906 ;; Hardware stack levels used:    1
   907 ;; This function calls:
   908 ;;		Nothing
   909 ;; This function is called by:
   910 ;;		_TMR1_Restart
   911 ;; This function uses a non-reentrant model
   912 ;;
   913                           
   914                           	psect	text7
   915  0078C4                     __ptext7:
   916                           	opt stack 0
   917  0078C4                     _TMR1_Stop:
   918                           	opt stack 29
   919                           
   920                           ;timers.c: 338: PIR1bits.TMR1IF = 0;
   921                           
   922                           ;incstack = 0
   923  0078C4  909E               	bcf	3998,0,c	;volatile
   924                           
   925                           ;timers.c: 339: T1CON &= (~ (1));
   926  0078C6  90CD               	bcf	4045,0,c	;volatile
   927  0078C8  0012               	return		;funcret
   928  0078CA                     __end_of_TMR1_Stop:
   929                           	opt stack 0
   930                           intcon	equ	0xFF2
   931                           wreg	equ	0xFE8
   932                           status	equ	0xFD8
   933                           
   934 ;; *************** function _TMR1_Config *****************
   935 ;; Defined at:
   936 ;;		line 199 in file "timers.c"
   937 ;; Parameters:    Size  Location     Type
   938 ;;  clock_source    1    wreg     enum E5908
   939 ;; Auto vars:     Size  Location     Type
   940 ;;  clock_source    1    0[COMRAM] enum E5908
   941 ;; Return value:  Size  Location     Type
   942 ;;                  1    wreg      void 
   943 ;; Registers used:
   944 ;;		wreg, status,2, status,0
   945 ;; Tracked objects:
   946 ;;		On entry : 0/0
   947 ;;		On exit  : 0/0
   948 ;;		Unchanged: 0/0
   949 ;; Data sizes:     COMRAM   BANK0   BANK1   BANK2   BANK3   BANK4   BANK5   BANK6   BANK7
   950 ;;      Params:         0       0       0       0       0       0       0       0       0
   951 ;;      Locals:         1       0       0       0       0       0       0       0       0
   952 ;;      Temps:          0       0       0       0       0       0       0       0       0
   953 ;;      Totals:         1       0       0       0       0       0       0       0       0
   954 ;;Total ram usage:        1 bytes
   955 ;; Hardware stack levels used:    1
   956 ;; This function calls:
   957 ;;		Nothing
   958 ;; This function is called by:
   959 ;;		_main
   960 ;; This function uses a non-reentrant model
   961 ;;
   962                           
   963                           	psect	text8
   964  0078F0                     __ptext8:
   965                           	opt stack 0
   966  0078F0                     _TMR1_Config:
   967                           	opt stack 30
   968                           
   969                           ;incstack = 0
   970                           ;TMR1_Config@clock_source stored from wreg
   971  0078F0  6E01               	movwf	TMR1_Config@clock_source,c
   972                           
   973                           ;timers.c: 228: PIE1bits.TMR1IE = 0;
   974  0078F2  909D               	bcf	3997,0,c	;volatile
   975                           
   976                           ;timers.c: 262: T1CON = (clock_source << 6) | (TMR1_PREESCALER_OF_8 << 4) | (TMR1_RW_MOD
      +                          E_16BIT << 1);
   977  0078F4  4001               	rrncf	TMR1_Config@clock_source,w,c
   978  0078F6  42E8               	rrncf	wreg,f,c
   979  0078F8  0BC0               	andlw	192
   980  0078FA  0932               	iorlw	50
   981  0078FC  6ECD               	movwf	4045,c	;volatile
   982  0078FE  0012               	return		;funcret
   983  007900                     __end_of_TMR1_Config:
   984                           	opt stack 0
   985                           intcon	equ	0xFF2
   986                           wreg	equ	0xFE8
   987                           status	equ	0xFD8
   988                           
   989 ;; *************** function _TMR0_Start *****************
   990 ;; Defined at:
   991 ;;		line 121 in file "timers.c"
   992 ;; Parameters:    Size  Location     Type
   993 ;;  milliseconds    2   56[COMRAM] unsigned short 
   994 ;; Auto vars:     Size  Location     Type
   995 ;;  temp_time       2   58[COMRAM] unsigned short 
   996 ;; Return value:  Size  Location     Type
   997 ;;                  1    wreg      void 
   998 ;; Registers used:
   999 ;;		wreg, status,2, status,0, cstack
  1000 ;; Tracked objects:
  1001 ;;		On entry : 0/0
  1002 ;;		On exit  : 0/0
  1003 ;;		Unchanged: 0/0
  1004 ;; Data sizes:     COMRAM   BANK0   BANK1   BANK2   BANK3   BANK4   BANK5   BANK6   BANK7
  1005 ;;      Params:         2       0       0       0       0       0       0       0       0
  1006 ;;      Locals:         2       0       0       0       0       0       0       0       0
  1007 ;;      Temps:          0       0       0       0       0       0       0       0       0
  1008 ;;      Totals:         4       0       0       0       0       0       0       0       0
  1009 ;;Total ram usage:        4 bytes
  1010 ;; Hardware stack levels used:    1
  1011 ;; Hardware stack levels required when called:    2
  1012 ;; This function calls:
  1013 ;;		___ftadd
  1014 ;;		___ftdiv
  1015 ;;		___ftneg
  1016 ;;		___fttol
  1017 ;;		___lwtoft
  1018 ;; This function is called by:
  1019 ;;		_main
  1020 ;; This function uses a non-reentrant model
  1021 ;;
  1022                           
  1023                           	psect	text9
  1024  0079F2                     __ptext9:
  1025                           	opt stack 0
  1026  0079F2                     _TMR0_Start:
  1027                           	opt stack 28
  1028                           
  1029                           ;timers.c: 123: UInt16_T temp_time;
  1030                           ;timers.c: 125: if (milliseconds > 4193)
  1031                           
  1032                           ;incstack = 0
  1033  0079F2  0E62               	movlw	98
  1034  0079F4  5C39               	subwf	TMR0_Start@milliseconds,w,c
  1035  0079F6  0E10               	movlw	16
  1036  0079F8  583A               	subwfb	TMR0_Start@milliseconds+1,w,c
  1037  0079FA  A0D8               	btfss	status,0,c
  1038  0079FC  D009               	goto	l1283
  1039                           
  1040                           ;timers.c: 126: {
  1041                           ;timers.c: 127: TMR0_TimerValue = 0;
  1042  0079FE  0E00               	movlw	0
  1043  007A00  6E42               	movwf	_TMR0_TimerValue+1,c
  1044  007A02  0E00               	movlw	0
  1045  007A04  6E41               	movwf	_TMR0_TimerValue,c
  1046                           
  1047                           ;timers.c: 128: TMR0H = 0;
  1048  007A06  0E00               	movlw	0
  1049  007A08  6ED7               	movwf	4055,c	;volatile
  1050                           
  1051                           ;timers.c: 129: TMR0L = 0;
  1052  007A0A  0E00               	movlw	0
  1053  007A0C  6ED6               	movwf	4054,c	;volatile
  1054                           
  1055                           ;timers.c: 130: }
  1056  007A0E  D03E               	goto	l1291
  1057  007A10                     l1283:
  1058                           
  1059                           ;timers.c: 131: else
  1060                           ;timers.c: 132: {
  1061                           ;timers.c: 139: temp_time = (UInt16_T)(65536 - (milliseconds / 0.064));
  1062  007A10  0E00               	movlw	0
  1063  007A12  6E21               	movwf	___ftadd@f2,c
  1064  007A14  0E80               	movlw	128
  1065  007A16  6E22               	movwf	___ftadd@f2+1,c
  1066  007A18  0E47               	movlw	71
  1067  007A1A  6E23               	movwf	___ftadd@f2+2,c
  1068  007A1C  0E12               	movlw	18
  1069  007A1E  6E0F               	movwf	___ftdiv@f2,c
  1070  007A20  0E83               	movlw	131
  1071  007A22  6E10               	movwf	___ftdiv@f2+1,c
  1072  007A24  0E3D               	movlw	61
  1073  007A26  6E11               	movwf	___ftdiv@f2+2,c
  1074  007A28  C039  F009         	movff	TMR0_Start@milliseconds,___lwtoft@c
  1075  007A2C  C03A  F00A         	movff	TMR0_Start@milliseconds+1,___lwtoft@c+1
  1076  007A30  ECB3  F03C         	call	___lwtoft	;wreg free
  1077  007A34  C009  F00C         	movff	?___lwtoft,___ftdiv@f1
  1078  007A38  C00A  F00D         	movff	?___lwtoft+1,___ftdiv@f1+1
  1079  007A3C  C00B  F00E         	movff	?___lwtoft+2,___ftdiv@f1+2
  1080  007A40  EC3D  F03E         	call	___ftdiv	;wreg free
  1081  007A44  C00C  F01B         	movff	?___ftdiv,___ftneg@f1
  1082  007A48  C00D  F01C         	movff	?___ftdiv+1,___ftneg@f1+1
  1083  007A4C  C00E  F01D         	movff	?___ftdiv+2,___ftneg@f1+2
  1084  007A50  ECA1  F03C         	call	___ftneg	;wreg free
  1085  007A54  C01B  F01E         	movff	?___ftneg,___ftadd@f1
  1086  007A58  C01C  F01F         	movff	?___ftneg+1,___ftadd@f1+1
  1087  007A5C  C01D  F020         	movff	?___ftneg+2,___ftadd@f1+2
  1088  007A60  EC2A  F03F         	call	___ftadd	;wreg free
  1089  007A64  C01E  F02A         	movff	?___ftadd,___fttol@f1
  1090  007A68  C01F  F02B         	movff	?___ftadd+1,___fttol@f1+1
  1091  007A6C  C020  F02C         	movff	?___ftadd+2,___fttol@f1+2
  1092  007A70  ECB0  F03E         	call	___fttol	;wreg free
  1093  007A74  C02A  F03B         	movff	?___fttol,TMR0_Start@temp_time
  1094  007A78  C02B  F03C         	movff	?___fttol+1,TMR0_Start@temp_time+1
  1095                           
  1096                           ;timers.c: 141: TMR0_TimerValue = temp_time;
  1097  007A7C  C03B  F041         	movff	TMR0_Start@temp_time,_TMR0_TimerValue
  1098  007A80  C03C  F042         	movff	TMR0_Start@temp_time+1,_TMR0_TimerValue+1
  1099                           
  1100                           ;timers.c: 143: TMR0H = (UInt8_T)(temp_time / 256);
  1101  007A84  503C               	movf	TMR0_Start@temp_time+1,w,c
  1102  007A86  6ED7               	movwf	4055,c	;volatile
  1103                           
  1104                           ;timers.c: 144: TMR0L = (UInt8_T)temp_time;
  1105  007A88  C03B  FFD6         	movff	TMR0_Start@temp_time,4054	;volatile
  1106  007A8C                     l1291:
  1107                           
  1108                           ;timers.c: 145: }
  1109                           ;timers.c: 147: T0CON |= (1 << 7);
  1110  007A8C  8ED5               	bsf	4053,7,c	;volatile
  1111  007A8E  0012               	return		;funcret
  1112  007A90                     __end_of_TMR0_Start:
  1113                           	opt stack 0
  1114                           intcon	equ	0xFF2
  1115                           wreg	equ	0xFE8
  1116                           status	equ	0xFD8
  1117                           
  1118 ;; *************** function ___lwtoft *****************
  1119 ;; Defined at:
  1120 ;;		line 28 in file "C:\Program Files (x86)\Microchip\xc8\v1.42\sources\common\lwtoft.c"
  1121 ;; Parameters:    Size  Location     Type
  1122 ;;  c               2    8[COMRAM] unsigned int 
  1123 ;; Auto vars:     Size  Location     Type
  1124 ;;		None
  1125 ;; Return value:  Size  Location     Type
  1126 ;;                  3    8[COMRAM] float 
  1127 ;; Registers used:
  1128 ;;		wreg, status,2, status,0, cstack
  1129 ;; Tracked objects:
  1130 ;;		On entry : 0/0
  1131 ;;		On exit  : 0/0
  1132 ;;		Unchanged: 0/0
  1133 ;; Data sizes:     COMRAM   BANK0   BANK1   BANK2   BANK3   BANK4   BANK5   BANK6   BANK7
  1134 ;;      Params:         3       0       0       0       0       0       0       0       0
  1135 ;;      Locals:         0       0       0       0       0       0       0       0       0
  1136 ;;      Temps:          0       0       0       0       0       0       0       0       0
  1137 ;;      Totals:         3       0       0       0       0       0       0       0       0
  1138 ;;Total ram usage:        3 bytes
  1139 ;; Hardware stack levels used:    1
  1140 ;; Hardware stack levels required when called:    1
  1141 ;; This function calls:
  1142 ;;		___ftpack
  1143 ;; This function is called by:
  1144 ;;		_TMR0_Start
  1145 ;;		_TMR1_Start
  1146 ;;		_TMR3_Start
  1147 ;; This function uses a non-reentrant model
  1148 ;;
  1149                           
  1150                           	psect	text10
  1151  007966                     __ptext10:
  1152                           	opt stack 0
  1153  007966                     ___lwtoft:
  1154                           	opt stack 28
  1155                           
  1156                           ;incstack = 0
  1157  007966  C009  F001         	movff	___lwtoft@c,___ftpack@arg
  1158  00796A  C00A  F002         	movff	___lwtoft@c+1,___ftpack@arg+1
  1159  00796E  6A03               	clrf	___ftpack@arg+2,c
  1160  007970  0E8E               	movlw	142
  1161  007972  6E04               	movwf	___ftpack@exp,c
  1162  007974  0E00               	movlw	0
  1163  007976  6E05               	movwf	___ftpack@sign,c
  1164  007978  ECE6  F03D         	call	___ftpack	;wreg free
  1165  00797C  C001  F009         	movff	?___ftpack,?___lwtoft
  1166  007980  C002  F00A         	movff	?___ftpack+1,?___lwtoft+1
  1167  007984  C003  F00B         	movff	?___ftpack+2,?___lwtoft+2
  1168  007988  0012               	return	
  1169  00798A                     __end_of___lwtoft:
  1170                           	opt stack 0
  1171                           intcon	equ	0xFF2
  1172                           wreg	equ	0xFE8
  1173                           status	equ	0xFD8
  1174                           
  1175 ;; *************** function ___fttol *****************
  1176 ;; Defined at:
  1177 ;;		line 44 in file "C:\Program Files (x86)\Microchip\xc8\v1.42\sources\common\fttol.c"
  1178 ;; Parameters:    Size  Location     Type
  1179 ;;  f1              3   41[COMRAM] float 
  1180 ;; Auto vars:     Size  Location     Type
  1181 ;;  lval            4   51[COMRAM] unsigned long 
  1182 ;;  exp1            1   55[COMRAM] unsigned char 
  1183 ;;  sign1           1   50[COMRAM] unsigned char 
  1184 ;; Return value:  Size  Location     Type
  1185 ;;                  4   41[COMRAM] long 
  1186 ;; Registers used:
  1187 ;;		wreg, status,2, status,0
  1188 ;; Tracked objects:
  1189 ;;		On entry : 0/0
  1190 ;;		On exit  : 0/0
  1191 ;;		Unchanged: 0/0
  1192 ;; Data sizes:     COMRAM   BANK0   BANK1   BANK2   BANK3   BANK4   BANK5   BANK6   BANK7
  1193 ;;      Params:         4       0       0       0       0       0       0       0       0
  1194 ;;      Locals:         6       0       0       0       0       0       0       0       0
  1195 ;;      Temps:          5       0       0       0       0       0       0       0       0
  1196 ;;      Totals:        15       0       0       0       0       0       0       0       0
  1197 ;;Total ram usage:       15 bytes
  1198 ;; Hardware stack levels used:    1
  1199 ;; This function calls:
  1200 ;;		Nothing
  1201 ;; This function is called by:
  1202 ;;		_TMR0_Start
  1203 ;;		_TMR1_Start
  1204 ;;		_TMR3_Start
  1205 ;; This function uses a non-reentrant model
  1206 ;;
  1207                           
  1208                           	psect	text11
  1209  007D60                     __ptext11:
  1210                           	opt stack 0
  1211  007D60                     ___fttol:
  1212                           	opt stack 29
  1213                           
  1214                           ;incstack = 0
  1215  007D60  C02C  F02E         	movff	___fttol@f1+2,??___fttol
  1216  007D64  6A2F               	clrf	(??___fttol+1)& (0+255),c
  1217  007D66  6A30               	clrf	(??___fttol+2)& (0+255),c
  1218  007D68  342B               	rlcf	___fttol@f1+1,w,c
  1219  007D6A  362E               	rlcf	??___fttol& (0+255),f,c
  1220  007D6C  E301               	bnc	u851
  1221  007D6E  802F               	bsf	(??___fttol+1)& (0+255),0,c
  1222  007D70                     u851:
  1223  007D70  502E               	movf	??___fttol,w,c
  1224  007D72  6E38               	movwf	___fttol@exp1,c
  1225  007D74  5038               	movf	___fttol@exp1,w,c
  1226  007D76  A4D8               	btfss	status,2,c
  1227  007D78  D009               	goto	l1235
  1228  007D7A  0E00               	movlw	0
  1229  007D7C  6E2A               	movwf	?___fttol,c
  1230  007D7E  0E00               	movlw	0
  1231  007D80  6E2B               	movwf	?___fttol+1,c
  1232  007D82  0E00               	movlw	0
  1233  007D84  6E2C               	movwf	?___fttol+2,c
  1234  007D86  0E00               	movlw	0
  1235  007D88  6E2D               	movwf	?___fttol+3,c
  1236  007D8A  0012               	return	
  1237  007D8C                     l1235:
  1238  007D8C  0E17               	movlw	23
  1239  007D8E  6E2E               	movwf	??___fttol& (0+255),c
  1240  007D90  C02A  F02F         	movff	___fttol@f1,??___fttol+1
  1241  007D94  C02B  F030         	movff	___fttol@f1+1,??___fttol+2
  1242  007D98  C02C  F031         	movff	___fttol@f1+2,??___fttol+3
  1243  007D9C  282E               	incf	??___fttol,w,c
  1244  007D9E  6E32               	movwf	(??___fttol+4)& (0+255),c
  1245  007DA0  D004               	goto	u870
  1246  007DA2                     u875:
  1247  007DA2  90D8               	bcf	status,0,c
  1248  007DA4  3231               	rrcf	??___fttol+3,f,c
  1249  007DA6  3230               	rrcf	??___fttol+2,f,c
  1250  007DA8  322F               	rrcf	??___fttol+1,f,c
  1251  007DAA                     u870:
  1252  007DAA  2E32               	decfsz	(??___fttol+4)& (0+255),f,c
  1253  007DAC  D7FA               	goto	u875
  1254  007DAE  502F               	movf	??___fttol+1,w,c
  1255  007DB0  6E33               	movwf	___fttol@sign1,c
  1256  007DB2  8E2B               	bsf	___fttol@f1+1,7,c
  1257  007DB4  0EFF               	movlw	255
  1258  007DB6  162A               	andwf	___fttol@f1,f,c
  1259  007DB8  0EFF               	movlw	255
  1260  007DBA  162B               	andwf	___fttol@f1+1,f,c
  1261  007DBC  0E00               	movlw	0
  1262  007DBE  162C               	andwf	___fttol@f1+2,f,c
  1263  007DC0  502A               	movf	___fttol@f1,w,c
  1264  007DC2  6E34               	movwf	___fttol@lval,c
  1265  007DC4  502B               	movf	___fttol@f1+1,w,c
  1266  007DC6  6E35               	movwf	___fttol@lval+1,c
  1267  007DC8  502C               	movf	___fttol@f1+2,w,c
  1268  007DCA  6E36               	movwf	___fttol@lval+2,c
  1269  007DCC  6A37               	clrf	___fttol@lval+3,c
  1270  007DCE  0E8E               	movlw	142
  1271  007DD0  5E38               	subwf	___fttol@exp1,f,c
  1272  007DD2  AE38               	btfss	___fttol@exp1,7,c
  1273  007DD4  D016               	goto	l1257
  1274  007DD6  5038               	movf	___fttol@exp1,w,c
  1275  007DD8  0A80               	xorlw	128
  1276  007DDA  0F8F               	addlw	143
  1277  007DDC  B0D8               	btfsc	status,0,c
  1278  007DDE  D009               	goto	l1253
  1279  007DE0  0E00               	movlw	0
  1280  007DE2  6E2A               	movwf	?___fttol,c
  1281  007DE4  0E00               	movlw	0
  1282  007DE6  6E2B               	movwf	?___fttol+1,c
  1283  007DE8  0E00               	movlw	0
  1284  007DEA  6E2C               	movwf	?___fttol+2,c
  1285  007DEC  0E00               	movlw	0
  1286  007DEE  6E2D               	movwf	?___fttol+3,c
  1287  007DF0  0012               	return	
  1288  007DF2                     l1253:
  1289  007DF2  90D8               	bcf	status,0,c
  1290  007DF4  3237               	rrcf	___fttol@lval+3,f,c
  1291  007DF6  3236               	rrcf	___fttol@lval+2,f,c
  1292  007DF8  3235               	rrcf	___fttol@lval+1,f,c
  1293  007DFA  3234               	rrcf	___fttol@lval,f,c
  1294  007DFC  3E38               	incfsz	___fttol@exp1,f,c
  1295  007DFE  D7F9               	goto	l1253
  1296  007E00  D015               	goto	l1267
  1297  007E02                     l1257:
  1298  007E02  0E17               	movlw	23
  1299  007E04  6438               	cpfsgt	___fttol@exp1,c
  1300  007E06  D00F               	goto	l1265
  1301  007E08  0E00               	movlw	0
  1302  007E0A  6E2A               	movwf	?___fttol,c
  1303  007E0C  0E00               	movlw	0
  1304  007E0E  6E2B               	movwf	?___fttol+1,c
  1305  007E10  0E00               	movlw	0
  1306  007E12  6E2C               	movwf	?___fttol+2,c
  1307  007E14  0E00               	movlw	0
  1308  007E16  6E2D               	movwf	?___fttol+3,c
  1309  007E18  0012               	return	
  1310  007E1A                     l1263:
  1311  007E1A  90D8               	bcf	status,0,c
  1312  007E1C  3634               	rlcf	___fttol@lval,f,c
  1313  007E1E  3635               	rlcf	___fttol@lval+1,f,c
  1314  007E20  3636               	rlcf	___fttol@lval+2,f,c
  1315  007E22  3637               	rlcf	___fttol@lval+3,f,c
  1316  007E24  0638               	decf	___fttol@exp1,f,c
  1317  007E26                     l1265:
  1318  007E26  5038               	movf	___fttol@exp1,w,c
  1319  007E28  A4D8               	btfss	status,2,c
  1320  007E2A  D7F7               	goto	l1263
  1321  007E2C                     l1267:
  1322  007E2C  5033               	movf	___fttol@sign1,w,c
  1323  007E2E  B4D8               	btfsc	status,2,c
  1324  007E30  D008               	goto	l1271
  1325  007E32  1E37               	comf	___fttol@lval+3,f,c
  1326  007E34  1E36               	comf	___fttol@lval+2,f,c
  1327  007E36  1E35               	comf	___fttol@lval+1,f,c
  1328  007E38  6C34               	negf	___fttol@lval,c
  1329  007E3A  0E00               	movlw	0
  1330  007E3C  2235               	addwfc	___fttol@lval+1,f,c
  1331  007E3E  2236               	addwfc	___fttol@lval+2,f,c
  1332  007E40  2237               	addwfc	___fttol@lval+3,f,c
  1333  007E42                     l1271:
  1334  007E42  C034  F02A         	movff	___fttol@lval,?___fttol
  1335  007E46  C035  F02B         	movff	___fttol@lval+1,?___fttol+1
  1336  007E4A  C036  F02C         	movff	___fttol@lval+2,?___fttol+2
  1337  007E4E  C037  F02D         	movff	___fttol@lval+3,?___fttol+3
  1338  007E52  0012               	return	
  1339  007E54                     __end_of___fttol:
  1340                           	opt stack 0
  1341                           intcon	equ	0xFF2
  1342                           wreg	equ	0xFE8
  1343                           status	equ	0xFD8
  1344                           
  1345 ;; *************** function ___ftneg *****************
  1346 ;; Defined at:
  1347 ;;		line 15 in file "C:\Program Files (x86)\Microchip\xc8\v1.42\sources\common\ftneg.c"
  1348 ;; Parameters:    Size  Location     Type
  1349 ;;  f1              3   26[COMRAM] float 
  1350 ;; Auto vars:     Size  Location     Type
  1351 ;;		None
  1352 ;; Return value:  Size  Location     Type
  1353 ;;                  3   26[COMRAM] float 
  1354 ;; Registers used:
  1355 ;;		wreg, status,2, status,0
  1356 ;; Tracked objects:
  1357 ;;		On entry : 0/0
  1358 ;;		On exit  : 0/0
  1359 ;;		Unchanged: 0/0
  1360 ;; Data sizes:     COMRAM   BANK0   BANK1   BANK2   BANK3   BANK4   BANK5   BANK6   BANK7
  1361 ;;      Params:         3       0       0       0       0       0       0       0       0
  1362 ;;      Locals:         0       0       0       0       0       0       0       0       0
  1363 ;;      Temps:          0       0       0       0       0       0       0       0       0
  1364 ;;      Totals:         3       0       0       0       0       0       0       0       0
  1365 ;;Total ram usage:        3 bytes
  1366 ;; Hardware stack levels used:    1
  1367 ;; This function calls:
  1368 ;;		Nothing
  1369 ;; This function is called by:
  1370 ;;		_TMR0_Start
  1371 ;;		_TMR1_Start
  1372 ;;		_TMR3_Start
  1373 ;; This function uses a non-reentrant model
  1374 ;;
  1375                           
  1376                           	psect	text12
  1377  007942                     __ptext12:
  1378                           	opt stack 0
  1379  007942                     ___ftneg:
  1380                           	opt stack 29
  1381                           
  1382                           ;incstack = 0
  1383  007942  501B               	movf	___ftneg@f1,w,c
  1384  007944  101C               	iorwf	___ftneg@f1+1,w,c
  1385  007946  101D               	iorwf	___ftneg@f1+2,w,c
  1386  007948  B4D8               	btfsc	status,2,c
  1387  00794A  D006               	goto	l428
  1388  00794C  0E00               	movlw	0
  1389  00794E  1A1B               	xorwf	___ftneg@f1,f,c
  1390  007950  0E00               	movlw	0
  1391  007952  1A1C               	xorwf	___ftneg@f1+1,f,c
  1392  007954  0E80               	movlw	128
  1393  007956  1A1D               	xorwf	___ftneg@f1+2,f,c
  1394  007958                     l428:
  1395  007958  C01B  F01B         	movff	___ftneg@f1,?___ftneg
  1396  00795C  C01C  F01C         	movff	___ftneg@f1+1,?___ftneg+1
  1397  007960  C01D  F01D         	movff	___ftneg@f1+2,?___ftneg+2
  1398  007964  0012               	return		;funcret
  1399  007966                     __end_of___ftneg:
  1400                           	opt stack 0
  1401                           intcon	equ	0xFF2
  1402                           wreg	equ	0xFE8
  1403                           status	equ	0xFD8
  1404                           
  1405 ;; *************** function ___ftdiv *****************
  1406 ;; Defined at:
  1407 ;;		line 54 in file "C:\Program Files (x86)\Microchip\xc8\v1.42\sources\common\ftdiv.c"
  1408 ;; Parameters:    Size  Location     Type
  1409 ;;  f1              3   11[COMRAM] float 
  1410 ;;  f2              3   14[COMRAM] float 
  1411 ;; Auto vars:     Size  Location     Type
  1412 ;;  f3              3   21[COMRAM] float 
  1413 ;;  sign            1   25[COMRAM] unsigned char 
  1414 ;;  exp             1   24[COMRAM] unsigned char 
  1415 ;;  cntr            1   20[COMRAM] unsigned char 
  1416 ;; Return value:  Size  Location     Type
  1417 ;;                  3   11[COMRAM] float 
  1418 ;; Registers used:
  1419 ;;		wreg, status,2, status,0, cstack
  1420 ;; Tracked objects:
  1421 ;;		On entry : 0/0
  1422 ;;		On exit  : 0/0
  1423 ;;		Unchanged: 0/0
  1424 ;; Data sizes:     COMRAM   BANK0   BANK1   BANK2   BANK3   BANK4   BANK5   BANK6   BANK7
  1425 ;;      Params:         6       0       0       0       0       0       0       0       0
  1426 ;;      Locals:         6       0       0       0       0       0       0       0       0
  1427 ;;      Temps:          3       0       0       0       0       0       0       0       0
  1428 ;;      Totals:        15       0       0       0       0       0       0       0       0
  1429 ;;Total ram usage:       15 bytes
  1430 ;; Hardware stack levels used:    1
  1431 ;; Hardware stack levels required when called:    1
  1432 ;; This function calls:
  1433 ;;		___ftpack
  1434 ;; This function is called by:
  1435 ;;		_TMR0_Start
  1436 ;;		_TMR1_Start
  1437 ;;		_TMR3_Start
  1438 ;; This function uses a non-reentrant model
  1439 ;;
  1440                           
  1441                           	psect	text13
  1442  007C7A                     __ptext13:
  1443                           	opt stack 0
  1444  007C7A                     ___ftdiv:
  1445                           	opt stack 28
  1446                           
  1447                           ;incstack = 0
  1448  007C7A  C00E  F012         	movff	___ftdiv@f1+2,??___ftdiv
  1449  007C7E  6A13               	clrf	(??___ftdiv+1)& (0+255),c
  1450  007C80  6A14               	clrf	(??___ftdiv+2)& (0+255),c
  1451  007C82  340D               	rlcf	___ftdiv@f1+1,w,c
  1452  007C84  3612               	rlcf	??___ftdiv& (0+255),f,c
  1453  007C86  E301               	bnc	u791
  1454  007C88  8013               	bsf	(??___ftdiv+1)& (0+255),0,c
  1455  007C8A                     u791:
  1456  007C8A  5012               	movf	??___ftdiv,w,c
  1457  007C8C  6E19               	movwf	___ftdiv@exp,c
  1458  007C8E  5019               	movf	___ftdiv@exp,w,c
  1459  007C90  A4D8               	btfss	status,2,c
  1460  007C92  D007               	goto	l1185
  1461  007C94  0E00               	movlw	0
  1462  007C96  6E0C               	movwf	?___ftdiv,c
  1463  007C98  0E00               	movlw	0
  1464  007C9A  6E0D               	movwf	?___ftdiv+1,c
  1465  007C9C  0E00               	movlw	0
  1466  007C9E  6E0E               	movwf	?___ftdiv+2,c
  1467  007CA0  0012               	return	
  1468  007CA2                     l1185:
  1469  007CA2  C011  F012         	movff	___ftdiv@f2+2,??___ftdiv
  1470  007CA6  6A13               	clrf	(??___ftdiv+1)& (0+255),c
  1471  007CA8  6A14               	clrf	(??___ftdiv+2)& (0+255),c
  1472  007CAA  3410               	rlcf	___ftdiv@f2+1,w,c
  1473  007CAC  3612               	rlcf	??___ftdiv& (0+255),f,c
  1474  007CAE  E301               	bnc	u811
  1475  007CB0  8013               	bsf	(??___ftdiv+1)& (0+255),0,c
  1476  007CB2                     u811:
  1477  007CB2  5012               	movf	??___ftdiv,w,c
  1478  007CB4  6E1A               	movwf	___ftdiv@sign,c
  1479  007CB6  501A               	movf	___ftdiv@sign,w,c
  1480  007CB8  A4D8               	btfss	status,2,c
  1481  007CBA  D007               	goto	l1191
  1482  007CBC  0E00               	movlw	0
  1483  007CBE  6E0C               	movwf	?___ftdiv,c
  1484  007CC0  0E00               	movlw	0
  1485  007CC2  6E0D               	movwf	?___ftdiv+1,c
  1486  007CC4  0E00               	movlw	0
  1487  007CC6  6E0E               	movwf	?___ftdiv+2,c
  1488  007CC8  0012               	return	
  1489  007CCA                     l1191:
  1490  007CCA  0E00               	movlw	0
  1491  007CCC  6E16               	movwf	___ftdiv@f3,c
  1492  007CCE  0E00               	movlw	0
  1493  007CD0  6E17               	movwf	___ftdiv@f3+1,c
  1494  007CD2  0E00               	movlw	0
  1495  007CD4  6E18               	movwf	___ftdiv@f3+2,c
  1496  007CD6  501A               	movf	___ftdiv@sign,w,c
  1497  007CD8  0F89               	addlw	137
  1498  007CDA  5E19               	subwf	___ftdiv@exp,f,c
  1499  007CDC  C00E  F01A         	movff	___ftdiv@f1+2,___ftdiv@sign
  1500  007CE0  5011               	movf	___ftdiv@f2+2,w,c
  1501  007CE2  1A1A               	xorwf	___ftdiv@sign,f,c
  1502  007CE4  0E80               	movlw	128
  1503  007CE6  161A               	andwf	___ftdiv@sign,f,c
  1504  007CE8  8E0D               	bsf	___ftdiv@f1+1,7,c
  1505  007CEA  0EFF               	movlw	255
  1506  007CEC  160C               	andwf	___ftdiv@f1,f,c
  1507  007CEE  0EFF               	movlw	255
  1508  007CF0  160D               	andwf	___ftdiv@f1+1,f,c
  1509  007CF2  0E00               	movlw	0
  1510  007CF4  160E               	andwf	___ftdiv@f1+2,f,c
  1511  007CF6  8E10               	bsf	___ftdiv@f2+1,7,c
  1512  007CF8  0EFF               	movlw	255
  1513  007CFA  160F               	andwf	___ftdiv@f2,f,c
  1514  007CFC  0EFF               	movlw	255
  1515  007CFE  1610               	andwf	___ftdiv@f2+1,f,c
  1516  007D00  0E00               	movlw	0
  1517  007D02  1611               	andwf	___ftdiv@f2+2,f,c
  1518  007D04  0E18               	movlw	24
  1519  007D06  6E15               	movwf	___ftdiv@cntr,c
  1520  007D08                     l1211:
  1521  007D08  90D8               	bcf	status,0,c
  1522  007D0A  3616               	rlcf	___ftdiv@f3,f,c
  1523  007D0C  3617               	rlcf	___ftdiv@f3+1,f,c
  1524  007D0E  3618               	rlcf	___ftdiv@f3+2,f,c
  1525  007D10  500F               	movf	___ftdiv@f2,w,c
  1526  007D12  5C0C               	subwf	___ftdiv@f1,w,c
  1527  007D14  5010               	movf	___ftdiv@f2+1,w,c
  1528  007D16  580D               	subwfb	___ftdiv@f1+1,w,c
  1529  007D18  5011               	movf	___ftdiv@f2+2,w,c
  1530  007D1A  580E               	subwfb	___ftdiv@f1+2,w,c
  1531  007D1C  A0D8               	btfss	status,0,c
  1532  007D1E  D007               	goto	l406
  1533  007D20  500F               	movf	___ftdiv@f2,w,c
  1534  007D22  5E0C               	subwf	___ftdiv@f1,f,c
  1535  007D24  5010               	movf	___ftdiv@f2+1,w,c
  1536  007D26  5A0D               	subwfb	___ftdiv@f1+1,f,c
  1537  007D28  5011               	movf	___ftdiv@f2+2,w,c
  1538  007D2A  5A0E               	subwfb	___ftdiv@f1+2,f,c
  1539  007D2C  8016               	bsf	___ftdiv@f3,0,c
  1540  007D2E                     l406:
  1541  007D2E  90D8               	bcf	status,0,c
  1542  007D30  360C               	rlcf	___ftdiv@f1,f,c
  1543  007D32  360D               	rlcf	___ftdiv@f1+1,f,c
  1544  007D34  360E               	rlcf	___ftdiv@f1+2,f,c
  1545  007D36  2E15               	decfsz	___ftdiv@cntr,f,c
  1546  007D38  D7E7               	goto	l1211
  1547  007D3A  C016  F001         	movff	___ftdiv@f3,___ftpack@arg
  1548  007D3E  C017  F002         	movff	___ftdiv@f3+1,___ftpack@arg+1
  1549  007D42  C018  F003         	movff	___ftdiv@f3+2,___ftpack@arg+2
  1550  007D46  C019  F004         	movff	___ftdiv@exp,___ftpack@exp
  1551  007D4A  C01A  F005         	movff	___ftdiv@sign,___ftpack@sign
  1552  007D4E  ECE6  F03D         	call	___ftpack	;wreg free
  1553  007D52  C001  F00C         	movff	?___ftpack,?___ftdiv
  1554  007D56  C002  F00D         	movff	?___ftpack+1,?___ftdiv+1
  1555  007D5A  C003  F00E         	movff	?___ftpack+2,?___ftdiv+2
  1556  007D5E  0012               	return	
  1557  007D60                     __end_of___ftdiv:
  1558                           	opt stack 0
  1559                           intcon	equ	0xFF2
  1560                           wreg	equ	0xFE8
  1561                           status	equ	0xFD8
  1562                           
  1563 ;; *************** function ___ftadd *****************
  1564 ;; Defined at:
  1565 ;;		line 86 in file "C:\Program Files (x86)\Microchip\xc8\v1.42\sources\common\ftadd.c"
  1566 ;; Parameters:    Size  Location     Type
  1567 ;;  f1              3   29[COMRAM] float 
  1568 ;;  f2              3   32[COMRAM] float 
  1569 ;; Auto vars:     Size  Location     Type
  1570 ;;  exp1            1   40[COMRAM] unsigned char 
  1571 ;;  exp2            1   39[COMRAM] unsigned char 
  1572 ;;  sign            1   38[COMRAM] unsigned char 
  1573 ;; Return value:  Size  Location     Type
  1574 ;;                  3   29[COMRAM] float 
  1575 ;; Registers used:
  1576 ;;		wreg, status,2, status,0, cstack
  1577 ;; Tracked objects:
  1578 ;;		On entry : 0/0
  1579 ;;		On exit  : 0/0
  1580 ;;		Unchanged: 0/0
  1581 ;; Data sizes:     COMRAM   BANK0   BANK1   BANK2   BANK3   BANK4   BANK5   BANK6   BANK7
  1582 ;;      Params:         6       0       0       0       0       0       0       0       0
  1583 ;;      Locals:         3       0       0       0       0       0       0       0       0
  1584 ;;      Temps:          3       0       0       0       0       0       0       0       0
  1585 ;;      Totals:        12       0       0       0       0       0       0       0       0
  1586 ;;Total ram usage:       12 bytes
  1587 ;; Hardware stack levels used:    1
  1588 ;; Hardware stack levels required when called:    1
  1589 ;; This function calls:
  1590 ;;		___ftpack
  1591 ;; This function is called by:
  1592 ;;		_TMR0_Start
  1593 ;;		_TMR1_Start
  1594 ;;		_TMR3_Start
  1595 ;; This function uses a non-reentrant model
  1596 ;;
  1597                           
  1598                           	psect	text14
  1599  007E54                     __ptext14:
  1600                           	opt stack 0
  1601  007E54                     ___ftadd:
  1602                           	opt stack 28
  1603                           
  1604                           ;incstack = 0
  1605  007E54  C020  F024         	movff	___ftadd@f1+2,??___ftadd
  1606  007E58  6A25               	clrf	(??___ftadd+1)& (0+255),c
  1607  007E5A  6A26               	clrf	(??___ftadd+2)& (0+255),c
  1608  007E5C  341F               	rlcf	___ftadd@f1+1,w,c
  1609  007E5E  3624               	rlcf	??___ftadd& (0+255),f,c
  1610  007E60  E301               	bnc	u581
  1611  007E62  8025               	bsf	(??___ftadd+1)& (0+255),0,c
  1612  007E64                     u581:
  1613  007E64  5024               	movf	??___ftadd,w,c
  1614  007E66  6E29               	movwf	___ftadd@exp1,c
  1615  007E68  C023  F024         	movff	___ftadd@f2+2,??___ftadd
  1616  007E6C  6A25               	clrf	(??___ftadd+1)& (0+255),c
  1617  007E6E  6A26               	clrf	(??___ftadd+2)& (0+255),c
  1618  007E70  3422               	rlcf	___ftadd@f2+1,w,c
  1619  007E72  3624               	rlcf	??___ftadd& (0+255),f,c
  1620  007E74  E301               	bnc	u591
  1621  007E76  8025               	bsf	(??___ftadd+1)& (0+255),0,c
  1622  007E78                     u591:
  1623  007E78  5024               	movf	??___ftadd,w,c
  1624  007E7A  6E28               	movwf	___ftadd@exp2,c
  1625  007E7C  5029               	movf	___ftadd@exp1,w,c
  1626  007E7E  B4D8               	btfsc	status,2,c
  1627  007E80  D00B               	goto	l371
  1628  007E82  5028               	movf	___ftadd@exp2,w,c
  1629  007E84  5C29               	subwf	___ftadd@exp1,w,c
  1630  007E86  B0D8               	btfsc	status,0,c
  1631  007E88  D00E               	goto	l1117
  1632  007E8A  5029               	movf	___ftadd@exp1,w,c
  1633  007E8C  0800               	sublw	0
  1634  007E8E  2428               	addwf	___ftadd@exp2,w,c
  1635  007E90  6E24               	movwf	??___ftadd& (0+255),c
  1636  007E92  0E18               	movlw	24
  1637  007E94  6424               	cpfsgt	??___ftadd,c
  1638  007E96  D007               	goto	l1117
  1639  007E98                     l371:
  1640  007E98  C021  F01E         	movff	___ftadd@f2,?___ftadd
  1641  007E9C  C022  F01F         	movff	___ftadd@f2+1,?___ftadd+1
  1642  007EA0  C023  F020         	movff	___ftadd@f2+2,?___ftadd+2
  1643  007EA4  0012               	return	
  1644  007EA6                     l1117:
  1645  007EA6  5028               	movf	___ftadd@exp2,w,c
  1646  007EA8  B4D8               	btfsc	status,2,c
  1647  007EAA  D00B               	goto	l375
  1648  007EAC  5029               	movf	___ftadd@exp1,w,c
  1649  007EAE  5C28               	subwf	___ftadd@exp2,w,c
  1650  007EB0  B0D8               	btfsc	status,0,c
  1651  007EB2  D00E               	goto	l1123
  1652  007EB4  5028               	movf	___ftadd@exp2,w,c
  1653  007EB6  0800               	sublw	0
  1654  007EB8  2429               	addwf	___ftadd@exp1,w,c
  1655  007EBA  6E24               	movwf	??___ftadd& (0+255),c
  1656  007EBC  0E18               	movlw	24
  1657  007EBE  6424               	cpfsgt	??___ftadd,c
  1658  007EC0  D007               	goto	l1123
  1659  007EC2                     l375:
  1660  007EC2  C01E  F01E         	movff	___ftadd@f1,?___ftadd
  1661  007EC6  C01F  F01F         	movff	___ftadd@f1+1,?___ftadd+1
  1662  007ECA  C020  F020         	movff	___ftadd@f1+2,?___ftadd+2
  1663  007ECE  0012               	return	
  1664  007ED0                     l1123:
  1665  007ED0  0E06               	movlw	6
  1666  007ED2  6E27               	movwf	___ftadd@sign,c
  1667  007ED4  BE20               	btfsc	___ftadd@f1+2,7,c
  1668  007ED6  8E27               	bsf	___ftadd@sign,7,c
  1669  007ED8  BE23               	btfsc	___ftadd@f2+2,7,c
  1670  007EDA  8C27               	bsf	___ftadd@sign,6,c
  1671  007EDC  8E1F               	bsf	___ftadd@f1+1,7,c
  1672  007EDE  0EFF               	movlw	255
  1673  007EE0  161E               	andwf	___ftadd@f1,f,c
  1674  007EE2  0EFF               	movlw	255
  1675  007EE4  161F               	andwf	___ftadd@f1+1,f,c
  1676  007EE6  0E00               	movlw	0
  1677  007EE8  1620               	andwf	___ftadd@f1+2,f,c
  1678  007EEA  8E22               	bsf	___ftadd@f2+1,7,c
  1679  007EEC  0EFF               	movlw	255
  1680  007EEE  1621               	andwf	___ftadd@f2,f,c
  1681  007EF0  0EFF               	movlw	255
  1682  007EF2  1622               	andwf	___ftadd@f2+1,f,c
  1683  007EF4  0E00               	movlw	0
  1684  007EF6  1623               	andwf	___ftadd@f2+2,f,c
  1685  007EF8  5028               	movf	___ftadd@exp2,w,c
  1686  007EFA  5C29               	subwf	___ftadd@exp1,w,c
  1687  007EFC  B0D8               	btfsc	status,0,c
  1688  007EFE  D01B               	goto	l1149
  1689  007F00                     l1139:
  1690  007F00  90D8               	bcf	status,0,c
  1691  007F02  3621               	rlcf	___ftadd@f2,f,c
  1692  007F04  3622               	rlcf	___ftadd@f2+1,f,c
  1693  007F06  3623               	rlcf	___ftadd@f2+2,f,c
  1694  007F08  0628               	decf	___ftadd@exp2,f,c
  1695  007F0A  5029               	movf	___ftadd@exp1,w,c
  1696  007F0C  1828               	xorwf	___ftadd@exp2,w,c
  1697  007F0E  B4D8               	btfsc	status,2,c
  1698  007F10  D00D               	goto	l1147
  1699  007F12  0627               	decf	___ftadd@sign,f,c
  1700  007F14  C027  F024         	movff	___ftadd@sign,??___ftadd
  1701  007F18  0E07               	movlw	7
  1702  007F1A  1624               	andwf	??___ftadd,f,c
  1703  007F1C  B4D8               	btfsc	status,2,c
  1704  007F1E  D006               	goto	l1147
  1705  007F20  D7EF               	goto	l1139
  1706  007F22                     l1145:
  1707  007F22  90D8               	bcf	status,0,c
  1708  007F24  3220               	rrcf	___ftadd@f1+2,f,c
  1709  007F26  321F               	rrcf	___ftadd@f1+1,f,c
  1710  007F28  321E               	rrcf	___ftadd@f1,f,c
  1711  007F2A  2A29               	incf	___ftadd@exp1,f,c
  1712  007F2C                     l1147:
  1713  007F2C  5028               	movf	___ftadd@exp2,w,c
  1714  007F2E  1829               	xorwf	___ftadd@exp1,w,c
  1715  007F30  B4D8               	btfsc	status,2,c
  1716  007F32  D01F               	goto	l386
  1717  007F34  D7F6               	goto	l1145
  1718  007F36                     l1149:
  1719  007F36  5029               	movf	___ftadd@exp1,w,c
  1720  007F38  5C28               	subwf	___ftadd@exp2,w,c
  1721  007F3A  B0D8               	btfsc	status,0,c
  1722  007F3C  D01A               	goto	l386
  1723  007F3E                     l1151:
  1724  007F3E  90D8               	bcf	status,0,c
  1725  007F40  361E               	rlcf	___ftadd@f1,f,c
  1726  007F42  361F               	rlcf	___ftadd@f1+1,f,c
  1727  007F44  3620               	rlcf	___ftadd@f1+2,f,c
  1728  007F46  0629               	decf	___ftadd@exp1,f,c
  1729  007F48  5029               	movf	___ftadd@exp1,w,c
  1730  007F4A  1828               	xorwf	___ftadd@exp2,w,c
  1731  007F4C  B4D8               	btfsc	status,2,c
  1732  007F4E  D00D               	goto	l1159
  1733  007F50  0627               	decf	___ftadd@sign,f,c
  1734  007F52  C027  F024         	movff	___ftadd@sign,??___ftadd
  1735  007F56  0E07               	movlw	7
  1736  007F58  1624               	andwf	??___ftadd,f,c
  1737  007F5A  B4D8               	btfsc	status,2,c
  1738  007F5C  D006               	goto	l1159
  1739  007F5E  D7EF               	goto	l1151
  1740  007F60                     l1157:
  1741  007F60  90D8               	bcf	status,0,c
  1742  007F62  3223               	rrcf	___ftadd@f2+2,f,c
  1743  007F64  3222               	rrcf	___ftadd@f2+1,f,c
  1744  007F66  3221               	rrcf	___ftadd@f2,f,c
  1745  007F68  2A28               	incf	___ftadd@exp2,f,c
  1746  007F6A                     l1159:
  1747  007F6A  5028               	movf	___ftadd@exp2,w,c
  1748  007F6C  1829               	xorwf	___ftadd@exp1,w,c
  1749  007F6E  A4D8               	btfss	status,2,c
  1750  007F70  D7F7               	goto	l1157
  1751  007F72                     l386:
  1752  007F72  AE27               	btfss	___ftadd@sign,7,c
  1753  007F74  D00C               	goto	l395
  1754  007F76  0EFF               	movlw	255
  1755  007F78  1A1E               	xorwf	___ftadd@f1,f,c
  1756  007F7A  0EFF               	movlw	255
  1757  007F7C  1A1F               	xorwf	___ftadd@f1+1,f,c
  1758  007F7E  0EFF               	movlw	255
  1759  007F80  1A20               	xorwf	___ftadd@f1+2,f,c
  1760  007F82  0E01               	movlw	1
  1761  007F84  261E               	addwf	___ftadd@f1,f,c
  1762  007F86  0E00               	movlw	0
  1763  007F88  221F               	addwfc	___ftadd@f1+1,f,c
  1764  007F8A  0E00               	movlw	0
  1765  007F8C  2220               	addwfc	___ftadd@f1+2,f,c
  1766  007F8E                     l395:
  1767  007F8E  AC27               	btfss	___ftadd@sign,6,c
  1768  007F90  D00C               	goto	l1165
  1769  007F92  0EFF               	movlw	255
  1770  007F94  1A21               	xorwf	___ftadd@f2,f,c
  1771  007F96  0EFF               	movlw	255
  1772  007F98  1A22               	xorwf	___ftadd@f2+1,f,c
  1773  007F9A  0EFF               	movlw	255
  1774  007F9C  1A23               	xorwf	___ftadd@f2+2,f,c
  1775  007F9E  0E01               	movlw	1
  1776  007FA0  2621               	addwf	___ftadd@f2,f,c
  1777  007FA2  0E00               	movlw	0
  1778  007FA4  2222               	addwfc	___ftadd@f2+1,f,c
  1779  007FA6  0E00               	movlw	0
  1780  007FA8  2223               	addwfc	___ftadd@f2+2,f,c
  1781  007FAA                     l1165:
  1782  007FAA  0E00               	movlw	0
  1783  007FAC  6E27               	movwf	___ftadd@sign,c
  1784  007FAE  501E               	movf	___ftadd@f1,w,c
  1785  007FB0  2621               	addwf	___ftadd@f2,f,c
  1786  007FB2  501F               	movf	___ftadd@f1+1,w,c
  1787  007FB4  2222               	addwfc	___ftadd@f2+1,f,c
  1788  007FB6  5020               	movf	___ftadd@f1+2,w,c
  1789  007FB8  2223               	addwfc	___ftadd@f2+2,f,c
  1790  007FBA  AE23               	btfss	___ftadd@f2+2,7,c
  1791  007FBC  D00E               	goto	l1175
  1792  007FBE  0EFF               	movlw	255
  1793  007FC0  1A21               	xorwf	___ftadd@f2,f,c
  1794  007FC2  0EFF               	movlw	255
  1795  007FC4  1A22               	xorwf	___ftadd@f2+1,f,c
  1796  007FC6  0EFF               	movlw	255
  1797  007FC8  1A23               	xorwf	___ftadd@f2+2,f,c
  1798  007FCA  0E01               	movlw	1
  1799  007FCC  2621               	addwf	___ftadd@f2,f,c
  1800  007FCE  0E00               	movlw	0
  1801  007FD0  2222               	addwfc	___ftadd@f2+1,f,c
  1802  007FD2  0E00               	movlw	0
  1803  007FD4  2223               	addwfc	___ftadd@f2+2,f,c
  1804  007FD6  0E01               	movlw	1
  1805  007FD8  6E27               	movwf	___ftadd@sign,c
  1806  007FDA                     l1175:
  1807  007FDA  C021  F001         	movff	___ftadd@f2,___ftpack@arg
  1808  007FDE  C022  F002         	movff	___ftadd@f2+1,___ftpack@arg+1
  1809  007FE2  C023  F003         	movff	___ftadd@f2+2,___ftpack@arg+2
  1810  007FE6  C029  F004         	movff	___ftadd@exp1,___ftpack@exp
  1811  007FEA  C027  F005         	movff	___ftadd@sign,___ftpack@sign
  1812  007FEE  ECE6  F03D         	call	___ftpack	;wreg free
  1813  007FF2  C001  F01E         	movff	?___ftpack,?___ftadd
  1814  007FF6  C002  F01F         	movff	?___ftpack+1,?___ftadd+1
  1815  007FFA  C003  F020         	movff	?___ftpack+2,?___ftadd+2
  1816  007FFE  0012               	return	
  1817  008000                     __end_of___ftadd:
  1818                           	opt stack 0
  1819                           intcon	equ	0xFF2
  1820                           wreg	equ	0xFE8
  1821                           status	equ	0xFD8
  1822                           
  1823 ;; *************** function ___ftpack *****************
  1824 ;; Defined at:
  1825 ;;		line 62 in file "C:\Program Files (x86)\Microchip\xc8\v1.42\sources\common\float.c"
  1826 ;; Parameters:    Size  Location     Type
  1827 ;;  arg             3    0[COMRAM] unsigned um
  1828 ;;  exp             1    3[COMRAM] unsigned char 
  1829 ;;  sign            1    4[COMRAM] unsigned char 
  1830 ;; Auto vars:     Size  Location     Type
  1831 ;;		None
  1832 ;; Return value:  Size  Location     Type
  1833 ;;                  3    0[COMRAM] float 
  1834 ;; Registers used:
  1835 ;;		wreg, status,2, status,0
  1836 ;; Tracked objects:
  1837 ;;		On entry : 0/0
  1838 ;;		On exit  : 0/0
  1839 ;;		Unchanged: 0/0
  1840 ;; Data sizes:     COMRAM   BANK0   BANK1   BANK2   BANK3   BANK4   BANK5   BANK6   BANK7
  1841 ;;      Params:         5       0       0       0       0       0       0       0       0
  1842 ;;      Locals:         0       0       0       0       0       0       0       0       0
  1843 ;;      Temps:          3       0       0       0       0       0       0       0       0
  1844 ;;      Totals:         8       0       0       0       0       0       0       0       0
  1845 ;;Total ram usage:        8 bytes
  1846 ;; Hardware stack levels used:    1
  1847 ;; This function calls:
  1848 ;;		Nothing
  1849 ;; This function is called by:
  1850 ;;		___ftadd
  1851 ;;		___ftdiv
  1852 ;;		___lwtoft
  1853 ;; This function uses a non-reentrant model
  1854 ;;
  1855                           
  1856                           	psect	text15
  1857  007BCC                     __ptext15:
  1858                           	opt stack 0
  1859  007BCC                     ___ftpack:
  1860                           	opt stack 28
  1861                           
  1862                           ;incstack = 0
  1863  007BCC  5004               	movf	___ftpack@exp,w,c
  1864  007BCE  B4D8               	btfsc	status,2,c
  1865  007BD0  D005               	goto	l1077
  1866  007BD2  5001               	movf	___ftpack@arg,w,c
  1867  007BD4  1002               	iorwf	___ftpack@arg+1,w,c
  1868  007BD6  1003               	iorwf	___ftpack@arg+2,w,c
  1869  007BD8  A4D8               	btfss	status,2,c
  1870  007BDA  D00C               	goto	l1083
  1871  007BDC                     l1077:
  1872  007BDC  0E00               	movlw	0
  1873  007BDE  6E01               	movwf	?___ftpack,c
  1874  007BE0  0E00               	movlw	0
  1875  007BE2  6E02               	movwf	?___ftpack+1,c
  1876  007BE4  0E00               	movlw	0
  1877  007BE6  6E03               	movwf	?___ftpack+2,c
  1878  007BE8  0012               	return	
  1879  007BEA                     l1081:
  1880  007BEA  2A04               	incf	___ftpack@exp,f,c
  1881  007BEC  90D8               	bcf	status,0,c
  1882  007BEE  3203               	rrcf	___ftpack@arg+2,f,c
  1883  007BF0  3202               	rrcf	___ftpack@arg+1,f,c
  1884  007BF2  3201               	rrcf	___ftpack@arg,f,c
  1885  007BF4                     l1083:
  1886  007BF4  0E00               	movlw	0
  1887  007BF6  1401               	andwf	___ftpack@arg,w,c
  1888  007BF8  6E06               	movwf	??___ftpack& (0+255),c
  1889  007BFA  0E00               	movlw	0
  1890  007BFC  1402               	andwf	___ftpack@arg+1,w,c
  1891  007BFE  6E07               	movwf	(??___ftpack+1)& (0+255),c
  1892  007C00  0EFE               	movlw	254
  1893  007C02  1403               	andwf	___ftpack@arg+2,w,c
  1894  007C04  6E08               	movwf	(??___ftpack+2)& (0+255),c
  1895  007C06  5006               	movf	??___ftpack,w,c
  1896  007C08  1007               	iorwf	??___ftpack+1,w,c
  1897  007C0A  1008               	iorwf	??___ftpack+2,w,c
  1898  007C0C  B4D8               	btfsc	status,2,c
  1899  007C0E  D00C               	goto	l1089
  1900  007C10  D7EC               	goto	l1081
  1901  007C12                     l1085:
  1902  007C12  2A04               	incf	___ftpack@exp,f,c
  1903  007C14  0E01               	movlw	1
  1904  007C16  2601               	addwf	___ftpack@arg,f,c
  1905  007C18  0E00               	movlw	0
  1906  007C1A  2202               	addwfc	___ftpack@arg+1,f,c
  1907  007C1C  0E00               	movlw	0
  1908  007C1E  2203               	addwfc	___ftpack@arg+2,f,c
  1909  007C20  90D8               	bcf	status,0,c
  1910  007C22  3203               	rrcf	___ftpack@arg+2,f,c
  1911  007C24  3202               	rrcf	___ftpack@arg+1,f,c
  1912  007C26  3201               	rrcf	___ftpack@arg,f,c
  1913  007C28                     l1089:
  1914  007C28  0E00               	movlw	0
  1915  007C2A  1401               	andwf	___ftpack@arg,w,c
  1916  007C2C  6E06               	movwf	??___ftpack& (0+255),c
  1917  007C2E  0E00               	movlw	0
  1918  007C30  1402               	andwf	___ftpack@arg+1,w,c
  1919  007C32  6E07               	movwf	(??___ftpack+1)& (0+255),c
  1920  007C34  0EFF               	movlw	255
  1921  007C36  1403               	andwf	___ftpack@arg+2,w,c
  1922  007C38  6E08               	movwf	(??___ftpack+2)& (0+255),c
  1923  007C3A  5006               	movf	??___ftpack,w,c
  1924  007C3C  1007               	iorwf	??___ftpack+1,w,c
  1925  007C3E  1008               	iorwf	??___ftpack+2,w,c
  1926  007C40  B4D8               	btfsc	status,2,c
  1927  007C42  D006               	goto	l1093
  1928  007C44  D7E6               	goto	l1085
  1929  007C46                     l1091:
  1930  007C46  0604               	decf	___ftpack@exp,f,c
  1931  007C48  90D8               	bcf	status,0,c
  1932  007C4A  3601               	rlcf	___ftpack@arg,f,c
  1933  007C4C  3602               	rlcf	___ftpack@arg+1,f,c
  1934  007C4E  3603               	rlcf	___ftpack@arg+2,f,c
  1935  007C50                     l1093:
  1936  007C50  BE02               	btfsc	___ftpack@arg+1,7,c
  1937  007C52  D003               	goto	l348
  1938  007C54  0E02               	movlw	2
  1939  007C56  6004               	cpfslt	___ftpack@exp,c
  1940  007C58  D7F6               	goto	l1091
  1941  007C5A                     l348:
  1942  007C5A  A004               	btfss	___ftpack@exp,0,c
  1943  007C5C  9E02               	bcf	___ftpack@arg+1,7,c
  1944  007C5E  90D8               	bcf	status,0,c
  1945  007C60  3204               	rrcf	___ftpack@exp,f,c
  1946  007C62  5004               	movf	___ftpack@exp,w,c
  1947  007C64  1203               	iorwf	___ftpack@arg+2,f,c
  1948  007C66  5005               	movf	___ftpack@sign,w,c
  1949  007C68  A4D8               	btfss	status,2,c
  1950  007C6A  8E03               	bsf	___ftpack@arg+2,7,c
  1951  007C6C  C001  F001         	movff	___ftpack@arg,?___ftpack
  1952  007C70  C002  F002         	movff	___ftpack@arg+1,?___ftpack+1
  1953  007C74  C003  F003         	movff	___ftpack@arg+2,?___ftpack+2
  1954  007C78  0012               	return	
  1955  007C7A                     __end_of___ftpack:
  1956                           	opt stack 0
  1957                           intcon	equ	0xFF2
  1958                           wreg	equ	0xFE8
  1959                           status	equ	0xFD8
  1960                           
  1961 ;; *************** function _TMR0_Restart *****************
  1962 ;; Defined at:
  1963 ;;		line 162 in file "timers.c"
  1964 ;; Parameters:    Size  Location     Type
  1965 ;;		None
  1966 ;; Auto vars:     Size  Location     Type
  1967 ;;		None
  1968 ;; Return value:  Size  Location     Type
  1969 ;;                  1    wreg      void 
  1970 ;; Registers used:
  1971 ;;		wreg, status,2, status,0, cstack
  1972 ;; Tracked objects:
  1973 ;;		On entry : 0/0
  1974 ;;		On exit  : 0/0
  1975 ;;		Unchanged: 0/0
  1976 ;; Data sizes:     COMRAM   BANK0   BANK1   BANK2   BANK3   BANK4   BANK5   BANK6   BANK7
  1977 ;;      Params:         0       0       0       0       0       0       0       0       0
  1978 ;;      Locals:         0       0       0       0       0       0       0       0       0
  1979 ;;      Temps:          0       0       0       0       0       0       0       0       0
  1980 ;;      Totals:         0       0       0       0       0       0       0       0       0
  1981 ;;Total ram usage:        0 bytes
  1982 ;; Hardware stack levels used:    1
  1983 ;; Hardware stack levels required when called:    1
  1984 ;; This function calls:
  1985 ;;		_TMR0_Stop
  1986 ;; This function is called by:
  1987 ;;		_main
  1988 ;; This function uses a non-reentrant model
  1989 ;;
  1990                           
  1991                           	psect	text16
  1992  0078E0                     __ptext16:
  1993                           	opt stack 0
  1994  0078E0                     _TMR0_Restart:
  1995                           	opt stack 29
  1996                           
  1997                           ;timers.c: 164: TMR0_Stop();
  1998                           
  1999                           ;incstack = 0
  2000  0078E0  EC5F  F03C         	call	_TMR0_Stop	;wreg free
  2001                           
  2002                           ;timers.c: 165: TMR0H = (UInt8_T)(TMR0_TimerValue >> 8);
  2003  0078E4  5042               	movf	_TMR0_TimerValue+1,w,c
  2004  0078E6  6ED7               	movwf	4055,c	;volatile
  2005                           
  2006                           ;timers.c: 166: TMR0L = (UInt8_T)(TMR0_TimerValue);
  2007  0078E8  C041  FFD6         	movff	_TMR0_TimerValue,4054	;volatile
  2008                           
  2009                           ;timers.c: 167: T0CON |= (1 << 7);
  2010  0078EC  8ED5               	bsf	4053,7,c	;volatile
  2011  0078EE  0012               	return		;funcret
  2012  0078F0                     __end_of_TMR0_Restart:
  2013                           	opt stack 0
  2014                           intcon	equ	0xFF2
  2015                           wreg	equ	0xFE8
  2016                           status	equ	0xFD8
  2017                           
  2018 ;; *************** function _TMR0_Stop *****************
  2019 ;; Defined at:
  2020 ;;		line 181 in file "timers.c"
  2021 ;; Parameters:    Size  Location     Type
  2022 ;;		None
  2023 ;; Auto vars:     Size  Location     Type
  2024 ;;		None
  2025 ;; Return value:  Size  Location     Type
  2026 ;;                  1    wreg      void 
  2027 ;; Registers used:
  2028 ;;		status,2, status,0
  2029 ;; Tracked objects:
  2030 ;;		On entry : 0/0
  2031 ;;		On exit  : 0/0
  2032 ;;		Unchanged: 0/0
  2033 ;; Data sizes:     COMRAM   BANK0   BANK1   BANK2   BANK3   BANK4   BANK5   BANK6   BANK7
  2034 ;;      Params:         0       0       0       0       0       0       0       0       0
  2035 ;;      Locals:         0       0       0       0       0       0       0       0       0
  2036 ;;      Temps:          0       0       0       0       0       0       0       0       0
  2037 ;;      Totals:         0       0       0       0       0       0       0       0       0
  2038 ;;Total ram usage:        0 bytes
  2039 ;; Hardware stack levels used:    1
  2040 ;; This function calls:
  2041 ;;		Nothing
  2042 ;; This function is called by:
  2043 ;;		_TMR0_Restart
  2044 ;; This function uses a non-reentrant model
  2045 ;;
  2046                           
  2047                           	psect	text17
  2048  0078BE                     __ptext17:
  2049                           	opt stack 0
  2050  0078BE                     _TMR0_Stop:
  2051                           	opt stack 29
  2052                           
  2053                           ;timers.c: 183: INTCONbits.TMR0IF = 0;
  2054                           
  2055                           ;incstack = 0
  2056  0078BE  94F2               	bcf	intcon,2,c	;volatile
  2057                           
  2058                           ;timers.c: 184: T0CON &= (~(1 << 7));
  2059  0078C0  9ED5               	bcf	4053,7,c	;volatile
  2060  0078C2  0012               	return		;funcret
  2061  0078C4                     __end_of_TMR0_Stop:
  2062                           	opt stack 0
  2063                           intcon	equ	0xFF2
  2064                           wreg	equ	0xFE8
  2065                           status	equ	0xFD8
  2066                           
  2067 ;; *************** function _TMR0_Config *****************
  2068 ;; Defined at:
  2069 ;;		line 25 in file "timers.c"
  2070 ;; Parameters:    Size  Location     Type
  2071 ;;  clock_source    1    wreg     enum E5890
  2072 ;; Auto vars:     Size  Location     Type
  2073 ;;  clock_source    1    0[COMRAM] enum E5890
  2074 ;; Return value:  Size  Location     Type
  2075 ;;                  1    wreg      void 
  2076 ;; Registers used:
  2077 ;;		wreg, status,2, status,0
  2078 ;; Tracked objects:
  2079 ;;		On entry : 0/0
  2080 ;;		On exit  : 0/0
  2081 ;;		Unchanged: 0/0
  2082 ;; Data sizes:     COMRAM   BANK0   BANK1   BANK2   BANK3   BANK4   BANK5   BANK6   BANK7
  2083 ;;      Params:         0       0       0       0       0       0       0       0       0
  2084 ;;      Locals:         1       0       0       0       0       0       0       0       0
  2085 ;;      Temps:          0       0       0       0       0       0       0       0       0
  2086 ;;      Totals:         1       0       0       0       0       0       0       0       0
  2087 ;;Total ram usage:        1 bytes
  2088 ;; Hardware stack levels used:    1
  2089 ;; This function calls:
  2090 ;;		Nothing
  2091 ;; This function is called by:
  2092 ;;		_main
  2093 ;; This function uses a non-reentrant model
  2094 ;;
  2095                           
  2096                           	psect	text18
  2097  0078D0                     __ptext18:
  2098                           	opt stack 0
  2099  0078D0                     _TMR0_Config:
  2100                           	opt stack 30
  2101                           
  2102                           ;incstack = 0
  2103                           ;TMR0_Config@clock_source stored from wreg
  2104  0078D0  6E01               	movwf	TMR0_Config@clock_source,c
  2105                           
  2106                           ;timers.c: 46: INTCONbits.TMR0IE = 0;
  2107  0078D2  9AF2               	bcf	intcon,5,c	;volatile
  2108                           
  2109                           ;timers.c: 107: T0CON = (TMR0_RW_MODE_16BIT << 6) | (clock_source << 5) | TMR0_PREESCALE
      +                          R_OF_256;
  2110  0078D4  3801               	swapf	TMR0_Config@clock_source,w,c
  2111  0078D6  46E8               	rlncf	wreg,f,c
  2112  0078D8  0BE0               	andlw	224
  2113  0078DA  0907               	iorlw	7
  2114  0078DC  6ED5               	movwf	4053,c	;volatile
  2115  0078DE  0012               	return		;funcret
  2116  0078E0                     __end_of_TMR0_Config:
  2117                           	opt stack 0
  2118  0000                     intcon	equ	0xFF2
  2119                           wreg	equ	0xFE8
  2120                           status	equ	0xFD8
  2121                           intcon	equ	0xFF2
  2122                           wreg	equ	0xFE8
  2123                           status	equ	0xFD8
  2124                           
  2125                           	psect	rparam
  2126  0000                     intcon	equ	0xFF2
  2127                           wreg	equ	0xFE8
  2128                           status	equ	0xFD8


Data Sizes:
    Strings     0
    Constant    0
    Data        0
    BSS         6
    Persistent  0
    Stack       0

Auto Spaces:
    Space          Size  Autos    Used
    COMRAM           95     60      66
    BANK0           160      0       0
    BANK1           256      0       0
    BANK2           256      0       0
    BANK3           256      0       0
    BANK4           256      0       0
    BANK5           256      0       0
    BANK6           256      0       0
    BANK7           256      0       0

Pointer List with Targets:

    None.

Critical Paths under _main in COMRAM

    _main->_TMR0_Start
    _main->_TMR1_Start
    _main->_TMR3_Start
    _TMR3_Start->___fttol
    _TMR1_Start->___fttol
    _TMR0_Start->___fttol
    ___lwtoft->___ftpack
    ___fttol->___ftadd
    ___ftneg->___ftdiv
    ___ftdiv->___lwtoft
    ___ftadd->___ftneg

Critical Paths under _main in BANK0

    None.

Critical Paths under _main in BANK1

    None.

Critical Paths under _main in BANK2

    None.

Critical Paths under _main in BANK3

    None.

Critical Paths under _main in BANK4

    None.

Critical Paths under _main in BANK5

    None.

Critical Paths under _main in BANK6

    None.

Critical Paths under _main in BANK7

    None.

Call Graph Tables:

 ---------------------------------------------------------------------------------
 (Depth) Function   	        Calls       Base Space   Used Autos Params    Refs
 ---------------------------------------------------------------------------------
 (0) _main                                                 0     0      0   32688
                        _TMR0_Config
                       _TMR0_Restart
                         _TMR0_Start
                        _TMR1_Config
                       _TMR1_Restart
                         _TMR1_Start
                        _TMR3_Config
                       _TMR3_Restart
                         _TMR3_Start
 ---------------------------------------------------------------------------------
 (1) _TMR3_Start                                           4     2      2   10881
                                             56 COMRAM     4     2      2
                            ___ftadd
                            ___ftdiv
                            ___ftneg
                            ___fttol
                           ___lwtoft
 ---------------------------------------------------------------------------------
 (1) _TMR3_Restart                                         0     0      0       0
                          _TMR3_Stop
 ---------------------------------------------------------------------------------
 (2) _TMR3_Stop                                            0     0      0       0
 ---------------------------------------------------------------------------------
 (1) _TMR3_Config                                          1     1      0      15
                                              0 COMRAM     1     1      0
 ---------------------------------------------------------------------------------
 (1) _TMR1_Start                                           4     2      2   10881
                                             56 COMRAM     4     2      2
                            ___ftadd
                            ___ftdiv
                            ___ftneg
                            ___fttol
                           ___lwtoft
 ---------------------------------------------------------------------------------
 (1) _TMR1_Restart                                         0     0      0       0
                          _TMR1_Stop
 ---------------------------------------------------------------------------------
 (2) _TMR1_Stop                                            0     0      0       0
 ---------------------------------------------------------------------------------
 (1) _TMR1_Config                                          1     1      0      15
                                              0 COMRAM     1     1      0
 ---------------------------------------------------------------------------------
 (1) _TMR0_Start                                           4     2      2   10881
                                             56 COMRAM     4     2      2
                            ___ftadd
                            ___ftdiv
                            ___ftneg
                            ___fttol
                           ___lwtoft
 ---------------------------------------------------------------------------------
 (2) ___lwtoft                                             3     0      3    2677
                                              8 COMRAM     3     0      3
                           ___ftpack
 ---------------------------------------------------------------------------------
 (2) ___fttol                                             15    11      4     480
                                             41 COMRAM    15    11      4
                            ___ftadd (ARG)
                            ___ftdiv (ARG)
                            ___ftneg (ARG)
                           ___lwtoft (ARG)
 ---------------------------------------------------------------------------------
 (2) ___ftneg                                              3     0      3     273
                                             26 COMRAM     3     0      3
                            ___ftdiv (ARG)
                           ___lwtoft (ARG)
 ---------------------------------------------------------------------------------
 (2) ___ftdiv                                             15     9      6    3289
                                             11 COMRAM    15     9      6
                           ___ftpack
                           ___lwtoft (ARG)
 ---------------------------------------------------------------------------------
 (2) ___ftadd                                             12     6      6    3975
                                             29 COMRAM    12     6      6
                            ___ftdiv (ARG)
                            ___ftneg (ARG)
                           ___ftpack
                           ___lwtoft (ARG)
 ---------------------------------------------------------------------------------
 (3) ___ftpack                                             8     3      5    2427
                                              0 COMRAM     8     3      5
 ---------------------------------------------------------------------------------
 (1) _TMR0_Restart                                         0     0      0       0
                          _TMR0_Stop
 ---------------------------------------------------------------------------------
 (2) _TMR0_Stop                                            0     0      0       0
 ---------------------------------------------------------------------------------
 (1) _TMR0_Config                                          1     1      0      15
                                              0 COMRAM     1     1      0
 ---------------------------------------------------------------------------------
 Estimated maximum stack depth 3
 ---------------------------------------------------------------------------------

 Call Graph Graphs:

 _main (ROOT)
   _TMR0_Config
   _TMR0_Restart
     _TMR0_Stop
   _TMR0_Start
     ___ftadd
       ___ftdiv (ARG)
         ___ftpack
         ___lwtoft (ARG)
           ___ftpack
       ___ftneg (ARG)
         ___ftdiv (ARG)
           ___ftpack
           ___lwtoft (ARG)
             ___ftpack
         ___lwtoft (ARG)
           ___ftpack
       ___ftpack (ARG)
       ___lwtoft (ARG)
         ___ftpack
     ___ftdiv
       ___ftpack
       ___lwtoft (ARG)
         ___ftpack
     ___ftneg
       ___ftdiv (ARG)
         ___ftpack
         ___lwtoft (ARG)
           ___ftpack
       ___lwtoft (ARG)
         ___ftpack
     ___fttol
       ___ftadd (ARG)
         ___ftdiv (ARG)
           ___ftpack
           ___lwtoft (ARG)
             ___ftpack
         ___ftneg (ARG)
           ___ftdiv (ARG)
             ___ftpack
             ___lwtoft (ARG)
               ___ftpack
           ___lwtoft (ARG)
             ___ftpack
         ___ftpack (ARG)
         ___lwtoft (ARG)
           ___ftpack
       ___ftdiv (ARG)
         ___ftpack
         ___lwtoft (ARG)
           ___ftpack
       ___ftneg (ARG)
         ___ftdiv (ARG)
           ___ftpack
           ___lwtoft (ARG)
             ___ftpack
         ___lwtoft (ARG)
           ___ftpack
       ___lwtoft (ARG)
         ___ftpack
     ___lwtoft
       ___ftpack
   _TMR1_Config
   _TMR1_Restart
     _TMR1_Stop
   _TMR1_Start
     ___ftadd
       ___ftdiv (ARG)
         ___ftpack
         ___lwtoft (ARG)
           ___ftpack
       ___ftneg (ARG)
         ___ftdiv (ARG)
           ___ftpack
           ___lwtoft (ARG)
             ___ftpack
         ___lwtoft (ARG)
           ___ftpack
       ___ftpack (ARG)
       ___lwtoft (ARG)
         ___ftpack
     ___ftdiv
       ___ftpack
       ___lwtoft (ARG)
         ___ftpack
     ___ftneg
       ___ftdiv (ARG)
         ___ftpack
         ___lwtoft (ARG)
           ___ftpack
       ___lwtoft (ARG)
         ___ftpack
     ___fttol
       ___ftadd (ARG)
         ___ftdiv (ARG)
           ___ftpack
           ___lwtoft (ARG)
             ___ftpack
         ___ftneg (ARG)
           ___ftdiv (ARG)
             ___ftpack
             ___lwtoft (ARG)
               ___ftpack
           ___lwtoft (ARG)
             ___ftpack
         ___ftpack (ARG)
         ___lwtoft (ARG)
           ___ftpack
       ___ftdiv (ARG)
         ___ftpack
         ___lwtoft (ARG)
           ___ftpack
       ___ftneg (ARG)
         ___ftdiv (ARG)
           ___ftpack
           ___lwtoft (ARG)
             ___ftpack
         ___lwtoft (ARG)
           ___ftpack
       ___lwtoft (ARG)
         ___ftpack
     ___lwtoft
       ___ftpack
   _TMR3_Config
   _TMR3_Restart
     _TMR3_Stop
   _TMR3_Start
     ___ftadd
       ___ftdiv (ARG)
         ___ftpack
         ___lwtoft (ARG)
           ___ftpack
       ___ftneg (ARG)
         ___ftdiv (ARG)
           ___ftpack
           ___lwtoft (ARG)
             ___ftpack
         ___lwtoft (ARG)
           ___ftpack
       ___ftpack (ARG)
       ___lwtoft (ARG)
         ___ftpack
     ___ftdiv
       ___ftpack
       ___lwtoft (ARG)
         ___ftpack
     ___ftneg
       ___ftdiv (ARG)
         ___ftpack
         ___lwtoft (ARG)
           ___ftpack
       ___lwtoft (ARG)
         ___ftpack
     ___fttol
       ___ftadd (ARG)
         ___ftdiv (ARG)
           ___ftpack
           ___lwtoft (ARG)
             ___ftpack
         ___ftneg (ARG)
           ___ftdiv (ARG)
             ___ftpack
             ___lwtoft (ARG)
               ___ftpack
           ___lwtoft (ARG)
             ___ftpack
         ___ftpack (ARG)
         ___lwtoft (ARG)
           ___ftpack
       ___ftdiv (ARG)
         ___ftpack
         ___lwtoft (ARG)
           ___ftpack
       ___ftneg (ARG)
         ___ftdiv (ARG)
           ___ftpack
           ___lwtoft (ARG)
             ___ftpack
         ___lwtoft (ARG)
           ___ftpack
       ___lwtoft (ARG)
         ___ftpack
     ___lwtoft
       ___ftpack

 Address spaces:
Name               Size   Autos  Total    Cost      Usage
BIGRAM             7FF      0       0      21        0.0%
EEDATA             100      0       0       0        0.0%
BITBANK7           100      0       0      19        0.0%
BANK7              100      0       0      20        0.0%
BITBANK6           100      0       0      17        0.0%
BANK6              100      0       0      18        0.0%
BITBANK5           100      0       0      15        0.0%
BANK5              100      0       0      16        0.0%
BITBANK4           100      0       0      13        0.0%
BANK4              100      0       0      14        0.0%
BITBANK3           100      0       0      11        0.0%
BANK3              100      0       0      12        0.0%
BITBANK2           100      0       0       9        0.0%
BANK2              100      0       0      10        0.0%
BITBANK1           100      0       0       7        0.0%
BANK1              100      0       0       8        0.0%
BITBANK0            A0      0       0       4        0.0%
BANK0               A0      0       0       5        0.0%
BITCOMRAM           5F      0       0       0        0.0%
COMRAM              5F     3C      42       1       69.5%
BITSFR_1             0      0       0     200        0.0%
SFR_1                0      0       0     200        0.0%
BITSFR               0      0       0     200        0.0%
SFR                  0      0       0     200        0.0%
STACK                0      0       0       2        0.0%
NULL                 0      0       0       0        0.0%
ABS                  0      0      42       6        0.0%
DATA                 0      0      42       3        0.0%
CODE                 0      0       0       0        0.0%


Microchip Technology PIC18 Macro Assembler V1.42 build -159332390 
Symbol Table                                                                                   Sun Apr 08 15:27:35 2018

           ___ftadd@exp1 0029             ___ftadd@exp2 0028             ___ftadd@sign 0027  
                    l406 7D2E                      l371 7E98                      l348 7C5A  
                    l428 7958                      l375 7EC2                      l386 7F72  
                    l395 7F8E                      u811 7CB2                      u581 7E64  
                    u591 7E78                      u851 7D70                      u940 7A9C  
                    u870 7DAA                      u950 7B3A                      u791 7C8A  
                    u875 7DA2          _TMR0_TimerValue 0041                      wreg 000FE8  
           ___ftdiv@cntr 0015             ___ftdiv@sign 001A                     l1123 7ED0  
                   l1211 7D08                     l1117 7EA6                     l1151 7F3E  
                   l1311 7B4C                     l1081 7BEA                     l1145 7F22  
                   l1305 7B2A                     l1091 7C46                     l1083 7BF4  
                   l1147 7F2C                     l1139 7F00                     l1235 7D8C  
                   l1093 7C50                     l1085 7C12                     l1077 7BDC  
                   l1165 7FAA                     l1157 7F60                     l1149 7F36  
                   l1253 7DF2                     l1341 79D8                     l1175 7FDA  
                   l1159 7F6A                     l1191 7CCA                     l1271 7E42  
                   l1263 7E1A                     l1319 7BC8                     l1335 79CC  
                   l1089 7C28                     l1185 7CA2                     l1265 7E26  
                   l1257 7E02                     l1267 7E2C                     l1291 7A8C  
                   l1283 7A10                     l1347 79E4                     l1297 7AAE  
                   _LATB 000F8A                     _PIR1 000F9E                     _PIR2 000FA1  
                   _main 798A             ___ftpack@arg 0001             ___ftpack@exp 0004  
                   start 1000          _TMR1_TimerValue 003F             ___param_bank 000000  
           ___fttol@exp1 0038             ___fttol@lval 0034                    ?_main 0001  
        __end_of___ftadd 8000          __end_of___ftdiv 7D60          __end_of___ftneg 7966  
                  _T0CON 000FD5                    _T1CON 000FCD          __end_of___fttol 7E54  
                  _T3CON 000FB1                    _TMR0H 000FD7                    _TMR1H 000FCF  
                  _TMR0L 000FD6                    _TMR1L 000FCE                    _TMR3H 000FB3  
                  _TMR3L 000FB2                    _TRISB 000F93              ?_TMR0_Start 0039  
     __size_of_TMR0_Stop 0006              ?_TMR1_Start 0039       __size_of_TMR1_Stop 0006  
     __size_of_TMR3_Stop 0006              ?_TMR3_Start 0039            ___ftpack@sign 0005  
                  status 000FD8          _TMR3_TimerValue 003D          __initialization 7930  
    TMR3_Start@temp_time 003B             __end_of_main 79F2                   ??_main 003D  
          ___fttol@sign1 0033            __activetblptr 000000                   _ANSELB 000F5C  
       __end_of___ftpack 7C7A                   _INTCON 000FF2         __end_of___lwtoft 798A  
           ?_TMR0_Config 0001             ?_TMR1_Config 0001             ?_TMR3_Config 0001  
      __end_of_TMR0_Stop 78C4        __end_of_TMR1_Stop 78CA                ??___ftadd 0024  
              ??___ftdiv 0012        __end_of_TMR3_Stop 78D0                ??___ftneg 001E  
    __size_of_TMR0_Start 009E                ??___fttol 002E      __size_of_TMR1_Start 009E  
    __size_of_TMR3_Start 009E               __accesstop 0060  __end_of__initialization 793C  
             ___ftadd@f1 001E               ___ftadd@f2 0021            ___rparam_used 000001  
             ___ftdiv@f1 000C               ___ftdiv@f2 000F               ___ftdiv@f3 0016  
             ___ftneg@f1 001B               ___fttol@f1 002A           __pcstackCOMRAM 0001  
TMR0_Config@clock_source 0001  TMR3_Config@clock_source 0001               ___lwtoft@c 0009  
              ?___ftpack 0001                ?___lwtoft 0009             ??_TMR0_Start 003B  
           ??_TMR1_Start 003B             ??_TMR3_Start 003B                  __Hparam 0000  
                __Lparam 0000                  ___ftadd 7E54     __size_of_TMR0_Config 0010  
                ___ftdiv 7C7A                  ___ftneg 7942                  ___fttol 7D60  
          ?_TMR0_Restart 0001     __size_of_TMR1_Config 0010       __end_of_TMR0_Start 7A90  
     __end_of_TMR1_Start 7B2E            ?_TMR1_Restart 0001     __size_of_TMR3_Config 0010  
     __end_of_TMR3_Start 7BCC                  __pcinit 7930               ??___ftpack 0006  
                __ramtop 0800                  __ptext0 798A                  __ptext1 7B2E  
                __ptext2 7920                  __ptext3 78CA                  __ptext4 7910  
                __ptext5 7A90                  __ptext6 7900                  __ptext7 78C4  
                __ptext8 78F0                  __ptext9 79F2               ??___lwtoft 000C  
          ?_TMR3_Restart 0001     end_of_initialization 793C           ??_TMR0_Restart 0001  
         ??_TMR1_Restart 0001           ??_TMR3_Restart 0001                _TMR0_Stop 78BE  
              _TMR1_Stop 78C4                _TMR3_Stop 78CA              ___ftdiv@exp 0019  
             ?_TMR0_Stop 0001               ?_TMR1_Stop 0001               ?_TMR3_Stop 0001  
    start_initialization 7930   TMR1_Start@milliseconds 0039  TMR1_Config@clock_source 0001  
      __size_of___ftpack 00AE              __pbssCOMRAM 003D        __size_of___lwtoft 0024  
   __end_of_TMR0_Restart 78F0     __end_of_TMR1_Restart 7910     __end_of_TMR3_Restart 7930  
               ?___ftadd 001E                 ?___ftdiv 000C                 ?___ftneg 001B  
               ?___fttol 002A              ??_TMR0_Stop 0001              ??_TMR1_Stop 0001  
            ??_TMR3_Stop 0001                 _PIE1bits 000F9D                 _PIE2bits 000FA0  
          ??_TMR0_Config 0001            ??_TMR1_Config 0001                 _PIR1bits 000F9E  
               _PIR2bits 000FA1            ??_TMR3_Config 0001                 __Hrparam 0000  
               __Lrparam 0000         __size_of___ftadd 01AC         __size_of___ftdiv 00E6  
       __size_of___ftneg 0024         __size_of___fttol 00F4      __end_of_TMR0_Config 78E0  
               ___ftpack 7BCC      __end_of_TMR1_Config 7900      __end_of_TMR3_Config 7920  
               ___lwtoft 7966    __size_of_TMR0_Restart 0010    __size_of_TMR1_Restart 0010  
               __ptext10 7966                 __ptext11 7D60                 __ptext12 7942  
               __ptext13 7C7A                 __ptext14 7E54                 __ptext15 7BCC  
               __ptext16 78E0                 __ptext17 78BE                 __ptext18 78D0  
  __size_of_TMR3_Restart 0010            __size_of_main 0068             _TMR0_Restart 78E0  
           _TMR1_Restart 7900      TMR0_Start@temp_time 003B             _TMR3_Restart 7920  
             _INTCONbits 000FF2   TMR0_Start@milliseconds 0039   TMR3_Start@milliseconds 0039  
            _TMR0_Config 78D0              _TMR1_Config 78F0              _TMR3_Config 7910  
    TMR1_Start@temp_time 003B               _TMR0_Start 79F2               _TMR1_Start 7A90  
             _TMR3_Start 7B2E  
